BL51 BANKED LINKER/LOCATER V6.22                                                        06/02/2018  10:26:57  PAGE 1


BL51 BANKED LINKER/LOCATER V6.22, INVOKED BY:
C:\KEIL\C51\BIN\BL51.EXE main.obj, system.obj, TM1722.obj, Keys.obj, KB4815.obj, Menu.obj, at24c08.obj, memory.obj, hand
>> ler.obj, uart.obj, lcd.obj, CB_Line.obj, MenuEvent.obj TO CB589P RAMSIZE (256) DISABLEWARNING (16)


MEMORY MODEL: LARGE WITH FLOATING POINT ARITHMETIC


INPUT MODULES INCLUDED:
  main.obj (MAIN)
  system.obj (SYSTEM)
  TM1722.obj (TM1722)
  Keys.obj (KEYS)
  KB4815.obj (KB4815)
  Menu.obj (MENU)
  at24c08.obj (AT24C08)
  memory.obj (MEMORY)
  handler.obj (HANDLER)
  uart.obj (UART)
  lcd.obj (LCD)
  CB_Line.obj (CB_LINE)
  MenuEvent.obj (MENUEVENT)
  C:\KEIL\C51\LIB\C51FPL.LIB (?C?FPADD)
  C:\KEIL\C51\LIB\C51FPL.LIB (?C?FPMUL)
  C:\KEIL\C51\LIB\C51FPL.LIB (?C?FPDIV)
  C:\KEIL\C51\LIB\C51FPL.LIB (?C?FPCMP)
  C:\KEIL\C51\LIB\C51FPL.LIB (?C?FCAST)
  C:\KEIL\C51\LIB\C51FPL.LIB (?C?CASTF)
  C:\KEIL\C51\LIB\C51FPL.LIB (?C?FPGETOPN)
  C:\KEIL\C51\LIB\C51L.LIB (?C_STARTUP)
  C:\KEIL\C51\LIB\C51L.LIB (?C?SCDIV)
  C:\KEIL\C51\LIB\C51L.LIB (?C?CLDPTR)
  C:\KEIL\C51\LIB\C51L.LIB (?C?CSTOPTR)
  C:\KEIL\C51\LIB\C51L.LIB (?C?UIDIV)
  C:\KEIL\C51\LIB\C51L.LIB (?C?ILDIX)
  C:\KEIL\C51\LIB\C51L.LIB (?C?ULDIV)
  C:\KEIL\C51\LIB\C51L.LIB (?C?LNEG)
  C:\KEIL\C51\LIB\C51L.LIB (?C?ULCMP)
  C:\KEIL\C51\LIB\C51L.LIB (?C?ULSHR)
  C:\KEIL\C51\LIB\C51L.LIB (?C?LSHL)
  C:\KEIL\C51\LIB\C51L.LIB (?C?LSTXDATA)
  C:\KEIL\C51\LIB\C51L.LIB (?C?LSTKXDATA)
  C:\KEIL\C51\LIB\C51L.LIB (?C?CCASE)
  C:\KEIL\C51\LIB\C51L.LIB (?C_INIT)


LINK MAP OF MODULE:  CB589P (MAIN)


            TYPE    BASE      LENGTH    RELOCATION   SEGMENT NAME
            -----------------------------------------------------

            * * * * * * *   D A T A   M E M O R Y   * * * * * * *
            REG     0000H     0008H     ABSOLUTE     "REG BANK 0"
            IDATA   0008H     0001H     UNIT         ?STACK

            * * * * * * *  X D A T A   M E M O R Y  * * * * * * *
            XDATA   0000H     00F9H     UNIT         ?XD?KB4815
BL51 BANKED LINKER/LOCATER V6.22                                                      06/02/2018  10:26:57  PAGE 2


            XDATA   00F9H     006DH     UNIT         ?XD?SYSTEM
            XDATA   0166H     0057H     UNIT         ?XD?UART
            XDATA   01BDH     0051H     UNIT         ?XD?TM1722
            XDATA   020EH     0028H     UNIT         _XDATA_GROUP_
            XDATA   0236H     0014H     UNIT         ?XD?KEYS
            XDATA   024AH     0010H     UNIT         ?XD?GET_BATT_AD?SYSTEM
            XDATA   025AH     0010H     UNIT         ?XD?CB_LINE
            XDATA   026AH     000EH     UNIT         ?XD?MENU
            XDATA   0278H     0008H     UNIT         ?XD?_EEPROMREADSEQUENTIAL?AT24C08
            XDATA   0280H     0007H     UNIT         ?XD?_EEPROMWRITEPAGE?AT24C08
            XDATA   0287H     0006H     UNIT         ?XD?MAIN
            XDATA   028DH     0003H     UNIT         ?XD?_TM1722_WRITE_STRING?TM1722
            XDATA   0290H     0003H     UNIT         ?XD?LCD
            XDATA   0293H     0002H     UNIT         ?XD?CHECKBATT?CB_LINE
            XDATA   0295H     0002H     UNIT         ?XD?MENUEVENT
            XDATA   0297H     0001H     UNIT         ?XD?CHANNEL_FRECAL_UP_FUC?MENUEVENT
            XDATA   0298H     0001H     UNIT         ?XD?CHANNEL_FRECAL_DN_FUC?MENUEVENT

            * * * * * * *   C O D E   M E M O R Y   * * * * * * *
            CODE    0000H     0003H     ABSOLUTE     
            CODE    0003H     0008H     UNIT         ?PR?_UART1SENDBYTE?UART
            CODE    000BH     0003H     ABSOLUTE     
            CODE    000EH     0004H     UNIT         ?PR?SHOWFACTORYSETING?LCD
            CODE    0012H     0001H     UNIT         ?PR?LOADTOBK4815?MEMORY
            CODE    0013H     0003H     ABSOLUTE     
            CODE    0016H     000BH     UNIT         ?PR?INITAT24C08?AT24C08
                    0021H     0002H                  *** GAP ***
            CODE    0023H     0003H     ABSOLUTE     
            CODE    0026H     0D32H     UNIT         ?PR?_MENUOPERATE?MENU
            CODE    0D58H     06E8H     UNIT         ?PR?TWINKLE_CONTROL?LCD
            CODE    1440H     0614H     UNIT         ?C?LIB_CODE
            CODE    1A54H     0560H     UNIT         ?PR?INITBK4815?KB4815
            CODE    1FB4H     0552H     UNIT         ?PR?_SENDCOMMAND?UART
            CODE    2506H     0324H     UNIT         ?PR?_GET_AD?SYSTEM
            CODE    282AH     02EEH     UNIT         ?PR?STARTBK4815TX?KB4815
            CODE    2B18H     027FH     UNIT         ?PR?CHANNEL_AF_FUC?MENUEVENT
            CODE    2D97H     0277H     UNIT         ?PR?CHECKALLPARAM?HANDLER
            CODE    300EH     026EH     UNIT         ?PR?ENTERBK4815RX?KB4815
            CODE    327CH     0204H     UNIT         ?PR?SHOWCHANNEL?LCD
            CODE    3480H     01EBH     UNIT         ?PR?LOADALLPARAM?MEMORY
            CODE    366BH     01DBH     UNIT         ?C_INITSEG
            CODE    3846H     01D3H     UNIT         ?PR?IS_KEY2_PRESS?KEYS
            CODE    3A19H     01C2H     UNIT         ?PR?EVENHANDLER?CB_LINE
            CODE    3BDBH     019DH     UNIT         ?PR?_LCD_STRENGTH?TM1722
            CODE    3D78H     0189H     UNIT         ?PR?IS_KEY1_PRESS?KEYS
            CODE    3F01H     0189H     UNIT         ?PR?CHANNEL_FAF_PPT_FUC?MENUEVENT
            CODE    408AH     0183H     UNIT         ?PR?SAVEALLPARAM?MEMORY
            CODE    420DH     013CH     UNIT         ?PR?CHANNEL_LONGUP_FUC?MENUEVENT
            CODE    4349H     0131H     UNIT         ?PR?CHECK_DW?KEYS
            CODE    447AH     012FH     UNIT         ?PR?CHECKCHANNEL?MENUEVENT
            CODE    45A9H     012DH     UNIT         ?PR?GET_BATT_AD?SYSTEM
            CODE    46D6H     0124H     UNIT         ?PR?UART0?UART
            CODE    47FAH     011DH     UNIT         ?PR?CHANNEL_SQ_SET_DN_FUC?MENUEVENT
            CODE    4917H     0117H     UNIT         ?PR?CHANNEL_SQ_SET_UP_FUC?MENUEVENT
            CODE    4A2EH     0112H     UNIT         ?PR?RECEIVERSSI?UART
            CODE    4B40H     0112H     UNIT         ?PR?SHOWSQRESET?LCD
            CODE    4C52H     00EFH     UNIT         ?PR?CHANNEL_UP_FUC?MENUEVENT
BL51 BANKED LINKER/LOCATER V6.22                                                      06/02/2018  10:26:57  PAGE 3


            CODE    4D41H     00E4H     UNIT         ?PR?CHECK_SCAN?KEYS
            CODE    4E25H     00D6H     UNIT         ?PR?CHANNEL_LONGDN_FUC?MENUEVENT
            CODE    4EFBH     00D5H     UNIT         ?PR?SHOWFC?LCD
            CODE    4FD0H     00D1H     UNIT         ?PR?CHANNEL_DW_FUC?MENUEVENT
            CODE    50A1H     00CFH     UNIT         ?PR?CHANNEL_PPTDN_FUC?MENUEVENT
            CODE    5170H     00CEH     UNIT         ?PR?CHANNEL_DN_FUC?MENUEVENT
            CODE    523EH     00BFH     UNIT         ?PR?CHANNEL_LONG_AF_FUC?MENUEVENT
            CODE    52FDH     00B7H     UNIT         ?PR?_EEPROMREADSEQUENTIAL?AT24C08
            CODE    53B4H     00B4H     UNIT         ?PR?CHANNEL_EMG_FUC?MENUEVENT
            CODE    5468H     00A3H     UNIT         ?PR?SAVEDTMF?MEMORY
            CODE    550BH     00A0H     UNIT         ?CO?TM1722
            CODE    55ABH     00A0H     UNIT         ?PR?CHANNEL_SQ_VOLUP_FUC?MENUEVENT
            CODE    564BH     0098H     UNIT         ?PR?CHANNEL_SQ_VOLDN_FUC?MENUEVENT
            CODE    56E3H     0094H     UNIT         ?PR?PWR_MUTE_PRESS?KEYS
            CODE    5777H     008EH     UNIT         ?PR?_CHECK_KEY?KEYS
            CODE    5805H     008CH     UNIT         ?PR?CHANNEL_PPTUP_FUC?MENUEVENT
            CODE    5891H     008CH     UNIT         ?C_C51STARTUP
            CODE    591DH     0089H     UNIT         ?PR?TM1722_SHOW?TM1722
            CODE    59A6H     0080H     UNIT         ?CO?KB4815
            CODE    5A26H     007DH     UNIT         ?PR?SETDEFAULTPARAM?HANDLER
            CODE    5AA3H     007BH     UNIT         ?PR?SHOWFRECALSET?LCD
            CODE    5B1EH     007AH     UNIT         ?PR?WIRELESSCHECKREC?CB_LINE
            CODE    5B98H     0078H     UNIT         ?PR?MAIN?MAIN
            CODE    5C10H     0078H     UNIT         ?PR?RX_STRENGTH_SHOW?LCD
            CODE    5C88H     0078H     UNIT         ?PR?CHECKBATT?CB_LINE
            CODE    5D00H     0077H     UNIT         ?PR?IRQ_TIMER1?MAIN
            CODE    5D77H     0070H     UNIT         ?PR?CHANNEL_FAF_FUC?MENUEVENT
            CODE    5DE7H     006DH     UNIT         ?PR?_EEPROMWRITEPAGE?AT24C08
            CODE    5E54H     0064H     UNIT         ?PR?_BK_DTMF_TX?KB4815
            CODE    5EB8H     0062H     UNIT         ?PR?CHANNEL_FAF_UP_FUC?MENUEVENT
            CODE    5F1AH     0060H     UNIT         ?PR?LOADLCDBEEP?LCD
            CODE    5F7AH     0060H     UNIT         ?PR?CHANNEL_FAF_DN_FUC?MENUEVENT
            CODE    5FDAH     005EH     UNIT         ?PR?_BK_READ_REG?KB4815
            CODE    6038H     0057H     UNIT         ?PR?_EEPROMREADBYTE?AT24C08
            CODE    608FH     0057H     UNIT         ?PR?CHANNEL_DOUBLEMUTE_FUC?MENUEVENT
            CODE    60E6H     0055H     UNIT         ?PR?CHANNEL_LONGSQ_FUC?MENUEVENT
            CODE    613BH     0051H     UNIT         ?PR?CHANNEL_VOLUP_FUC?MENUEVENT
            CODE    618CH     0050H     UNIT         ?PR?_SHOWCONTRY?TM1722
            CODE    61DCH     004EH     UNIT         ?PR?WAITPOWERON?MAIN
            CODE    622AH     004EH     UNIT         ?PR?KEYS_PRESS_SCAN?CB_LINE
            CODE    6278H     004CH     UNIT         ?PR?BK_DTMF_RECIVE?KB4815
            CODE    62C4H     004CH     UNIT         ?PR?AT24C08I2CREADBYTE?AT24C08
            CODE    6310H     004CH     UNIT         ?PR?GET4815RSSI?CB_LINE
            CODE    635CH     004AH     UNIT         ?PR?CHECKHITPOWERPRESS?MAIN
            CODE    63A6H     004AH     UNIT         ?PR?_ISSENDCMDOK?UART
            CODE    63F0H     0044H     UNIT         ?PR?INITMENU?MENU
            CODE    6434H     0044H     UNIT         ?PR?AT24C08RXACK?AT24C08
            CODE    6478H     0043H     UNIT         ?PR?_EEPROMWRITEBYTE?AT24C08
            CODE    64BBH     0043H     UNIT         ?PR?CHECKHITPOWER?LCD
            CODE    64FEH     0043H     UNIT         ?PR?CHANNEL_MENU_BACK_FUC?MENUEVENT
            CODE    6541H     0043H     UNIT         ?PR?FACTORY_SETTING_FUC?MENUEVENT
            CODE    6584H     0042H     UNIT         ?PR?ISDTMFSENDOK?KB4815
            CODE    65C6H     0041H     UNIT         ?PR?INITKEY?KEYS
            CODE    6607H     0041H     UNIT         ?PR?SHOWSQSET?LCD
            CODE    6648H     0041H     UNIT         ?PR?CHANNEL_VOLDN_FUC?MENUEVENT
            CODE    6689H     0041H     UNIT         ?PR?CHANNEL_RFG_DN_FUC?MENUEVENT
            CODE    66CAH     0040H     UNIT         ?PR?LCD_CLEAR?TM1722
BL51 BANKED LINKER/LOCATER V6.22                                                      06/02/2018  10:26:57  PAGE 4


            CODE    670AH     0040H     UNIT         ?PR?_BK_WRITE_REG?KB4815
            CODE    674AH     0040H     UNIT         ?PR?CHANNEL_RFG_UP_FUC?MENUEVENT
            CODE    678AH     003FH     UNIT         ?PR?BK_DTMF_INTERUPT_CLEAR?KB4815
            CODE    67C9H     003FH     UNIT         ?PR?ISMODUCONSTANT?HANDLER
            CODE    6808H     003CH     UNIT         ?PR?GETSQSET?UART
            CODE    6844H     003BH     UNIT         ?PR?_TM1722_WRITE_STRING?TM1722
            CODE    687FH     003AH     UNIT         ?PR?IO_INIT?SYSTEM
            CODE    68B9H     0038H     UNIT         ?PR?_AT24C08I2CWRITEBYTE?AT24C08
            CODE    68F1H     0038H     UNIT         ?PR?SHOWRFG?LCD
            CODE    6929H     0037H     UNIT         ?PR?SHOWBP?LCD
            CODE    6960H     0037H     UNIT         ?PR?SHOWFB?LCD
            CODE    6997H     0036H     UNIT         ?PR?CHECKTXPOWER?HANDLER
            CODE    69CDH     0035H     UNIT         ?PR?TM1722_INIT?TM1722
            CODE    6A02H     0033H     UNIT         ?PR?SHOWSPEAKSWITCH?LCD
            CODE    6A35H     0031H     UNIT         ?PR?_SAVEDATA?MEMORY
            CODE    6A66H     0031H     UNIT         ?PR?SAVEMENUPARAM?MEMORY
            CODE    6A97H     0030H     UNIT         ?PR?BK_RX2TX?KB4815
            CODE    6AC7H     0030H     UNIT         ?PR?CHANNEL_LOCK_PRESSOTHER_FUC?MENUEVENT
            CODE    6AF7H     002FH     UNIT         ?PR?PLAYBUTTONTONE?LCD
            CODE    6B26H     002FH     UNIT         ?PR?CHANNEL_LONGF_F_F_FC_DN_FUC?MENUEVENT
            CODE    6B55H     002EH     UNIT         ?PR?PPT_PRESS?KEYS
            CODE    6B83H     002DH     UNIT         ?PR?CLOSE_SQ?CB_LINE
            CODE    6BB0H     002BH     UNIT         ?PR?CHANNEL_FRECAL_UP_FUC?MENUEVENT
            CODE    6BDBH     002BH     UNIT         ?PR?CHANNEL_FRECAL_DN_FUC?MENUEVENT
            CODE    6C06H     002AH     UNIT         ?PR?CLEARFLAG?HANDLER
            CODE    6C30H     002AH     UNIT         ?PR?ANALYSECMD?UART
            CODE    6C5AH     002AH     UNIT         ?PR?SHOWSQ?LCD
            CODE    6C84H     002AH     UNIT         ?PR?SHOWASQ?LCD
            CODE    6CAEH     0029H     UNIT         ?PR?_TM1722_WRITE_BYTE?TM1722
            CODE    6CD7H     0029H     UNIT         ?PR?_LOADDATA?MEMORY
            CODE    6D00H     0028H     UNIT         ?PR?_AT24C08TXACK?AT24C08
            CODE    6D28H     0028H     UNIT         ?PR?INITHANDLER?HANDLER
            CODE    6D50H     0028H     UNIT         ?PR?CHANNEL_LONGF_PB_UP_FUC?MENUEVENT
            CODE    6D78H     0028H     UNIT         ?PR?CHANNEL_LONGF_PB_DN_FUC?MENUEVENT
            CODE    6DA0H     0028H     UNIT         ?PR?CHANNEL_LONGF_F_F_FC_UP_FUC?MENUEVENT
            CODE    6DC8H     0028H     UNIT         ?PR?CHANNEL_LONGF_F_FB_UP_FUC?MENUEVENT
            CODE    6DF0H     0028H     UNIT         ?PR?CHANNEL_LONGF_F_FB_DN_FUC?MENUEVENT
            CODE    6E18H     0027H     UNIT         ?PR?CHANNEL_SCAN_SCAN_FUC?MENUEVENT
            CODE    6E3FH     0027H     UNIT         ?PR?CHANNEL_SQ_SET_F_FUC?MENUEVENT
            CODE    6E66H     0026H     UNIT         ?PR?INITBEEP?SYSTEM
            CODE    6E8CH     0026H     UNIT         ?PR?_TM1722_WRITE_WORD?TM1722
            CODE    6EB2H     0026H     UNIT         ?PR?BK_TX2RX?KB4815
            CODE    6ED8H     0025H     UNIT         ?PR?_LCD_NUM4?TM1722
            CODE    6EFDH     0025H     UNIT         ?PR?_LCD_NUM5?TM1722
            CODE    6F22H     0024H     UNIT         ?PR?CHANNEL_SCAN_FUC?MENUEVENT
            CODE    6F46H     0023H     UNIT         ?PR?_LCD_RX?TM1722
            CODE    6F69H     0023H     UNIT         ?PR?_LCD_TX?TM1722
            CODE    6F8CH     0023H     UNIT         ?PR?_LCD_EMG?TM1722
            CODE    6FAFH     0023H     UNIT         ?PR?_LCD_SCAN?TM1722
            CODE    6FD2H     0023H     UNIT         ?PR?_LCD_LOW?TM1722
            CODE    6FF5H     0023H     UNIT         ?PR?_LCD_DW?TM1722
            CODE    7018H     0023H     UNIT         ?PR?_LCD_BATT?TM1722
            CODE    703BH     0023H     UNIT         ?PR?_LCD_FM?TM1722
            CODE    705EH     0023H     UNIT         ?PR?_LCD_AM?TM1722
            CODE    7081H     0023H     UNIT         ?PR?_LCD_PS?TM1722
            CODE    70A4H     0023H     UNIT         ?PR?_LCD_LOCK?TM1722
            CODE    70C7H     0023H     UNIT         ?PR?_LCD_ASQ?TM1722
BL51 BANKED LINKER/LOCATER V6.22                                                      06/02/2018  10:26:57  PAGE 5


            CODE    70EAH     0023H     UNIT         ?PR?CHANNEL_LONGPOWER_FUC?MENUEVENT
            CODE    710DH     0020H     UNIT         ?PR?_DELAYMS?SYSTEM
            CODE    712DH     0020H     UNIT         ?PR?WRILESS_BUTTON?LCD
            CODE    714DH     0020H     UNIT         ?PR?SHOWVOL?LCD
            CODE    716DH     0020H     UNIT         ?PR?CHANNEL_SCAN_UP_FUC?MENUEVENT
            CODE    718DH     001FH     UNIT         ?PR?INITREG01_19?KB4815
            CODE    71ACH     001FH     UNIT         ?PR?_UART0SENDDATA?UART
            CODE    71CBH     001FH     UNIT         ?PR?CHANNEL_FUPAFRFGSCAN_DN_FUC?MENUEVENT
            CODE    71EAH     001FH     UNIT         ?PR?CHANNEL_FUPAFRFGSCAN_UP_FUC?MENUEVENT
            CODE    7209H     001EH     UNIT         ?PR?BK_RAMP_TABLE_INIT?KB4815
            CODE    7227H     001EH     UNIT         ?PR?BK_DTMF_RX_READ?KB4815
            CODE    7245H     001EH     UNIT         ?PR?CHANNEL_SCAN_DN_FUC?MENUEVENT
            CODE    7263H     001DH     UNIT         ?PR?SETBK4815PRAGRAM?CB_LINE
            CODE    7280H     001CH     UNIT         ?PR?SETCONTRY?LCD
            CODE    729CH     001AH     UNIT         ?PR?INITLCD?LCD
            CODE    72B6H     0019H     UNIT         ?PR?INT0_IRQ?MAIN
            CODE    72CFH     0019H     UNIT         ?PR?BK_ENABLE_TX_INBANDSIGNAL?KB4815
            CODE    72E8H     0019H     UNIT         ?PR?BK_DISABLE_TX_INBANDSIGNAL?KB4815
            CODE    7301H     0019H     UNIT         ?PR?SHOWTABLE?LCD
            CODE    731AH     0018H     UNIT         ?PR?SYSTEMCLK_INIT?SYSTEM
            CODE    7332H     0018H     UNIT         ?PR?UART1_INIT?SYSTEM
            CODE    734AH     0017H     UNIT         ?PR?INT1_INIT?SYSTEM
            CODE    7361H     0017H     UNIT         ?PR?_UART0SENDSTRING?UART
            CODE    7378H     0017H     UNIT         ?PR?CHANNEL_DOUBLEF_FUC?MENUEVENT
            CODE    738FH     0016H     UNIT         ?PR?AT24C08I2CSTOP?AT24C08
            CODE    73A5H     0016H     UNIT         ?PR?CHANNEL_SQ_FUC?MENUEVENT
            CODE    73BBH     0015H     UNIT         ?PR?INITTIMER0?SYSTEM
            CODE    73D0H     0013H     UNIT         ?PR?SYSTEMINIT?SYSTEM
            CODE    73E3H     0013H     UNIT         ?PR?_LCD_NUM1?TM1722
            CODE    73F6H     0013H     UNIT         ?PR?_LCD_NUM2?TM1722
            CODE    7409H     0013H     UNIT         ?PR?_LCD_NUM3?TM1722
            CODE    741CH     0013H     UNIT         ?PR?AT24C08I2CSTART?AT24C08
            CODE    742FH     0011H     UNIT         ?PR?UART0_INIT?SYSTEM
            CODE    7440H     0010H     UNIT         ?PR?BK4815SLEEP?KB4815
            CODE    7450H     0010H     UNIT         ?PR?CLEARUARTDATA?UART
            CODE    7460H     000FH     UNIT         ?PR?SHOWLCDLED?HANDLER
            CODE    746FH     000EH     UNIT         ?PR?BK4815RSSIANDSNR?KB4815
            CODE    747DH     000EH     UNIT         ?PR?LCDSHOWERROR?LCD
            CODE    748BH     000BH     UNIT         ?PR?CHANNEL_RFG_FUC?MENUEVENT
            CODE    7496H     0009H     UNIT         ?PR?SHOWBUTTONLED?HANDLER
            CODE    749FH     0009H     UNIT         ?PR?CHANNEL_SQ_SET_FUC?MENUEVENT
            CODE    74A8H     0008H     UNIT         ?PR?_UART0SENDBYTE?UART
            CODE    74B0H     0007H     UNIT         ?PR?INITMEMORY?MEMORY
            CODE    74B7H     0004H     UNIT         ?PR?SHOWHITPOWER?LCD
            CODE    74BBH     0004H     UNIT         ?PR?CHANNEL_FUC?MENUEVENT
            CODE    74BFH     0004H     UNIT         ?PR?CHANNEL_LONGF_PB_FUC?MENUEVENT
            CODE    74C3H     0004H     UNIT         ?PR?CHANNEL_LONGF_F_F_FC_FUC?MENUEVENT
            CODE    74C7H     0004H     UNIT         ?PR?CHANNEL_LONGF_F_FB_FUC?MENUEVENT
            CODE    74CBH     0004H     UNIT         ?PR?CHANNEL_TABLE_FUC?MENUEVENT
            CODE    74CFH     0004H     UNIT         ?PR?CHANNEL_FRECAL_FUC?MENUEVENT
            CODE    74D3H     0003H     UNIT         ?PR?_DELAYUS?SYSTEM



OVERLAY MAP OF MODULE:   CB589P (MAIN)


BL51 BANKED LINKER/LOCATER V6.22                                                      06/02/2018  10:26:57  PAGE 6


SEGMENT                                            XDATA_GROUP
  +--> CALLED SEGMENT                            START    LENGTH
----------------------------------------------------------------
?PR?UART0?UART                                   020EH    0002H
  +--> ?PR?ANALYSECMD?UART

?PR?ANALYSECMD?UART                              -----    -----
  +--> ?PR?RECEIVERSSI?UART
  +--> ?PR?GETSQSET?UART

?PR?RECEIVERSSI?UART                             -----    -----
  +--> ?PR?_LCD_RX?TM1722

*** NEW ROOT ***************************************************

?C_C51STARTUP                                    -----    -----
  +--> ?PR?MAIN?MAIN
  +--> ?C_INITSEG

?PR?MAIN?MAIN                                    0210H    0001H
  +--> ?PR?SYSTEMINIT?SYSTEM
  +--> ?PR?INITMEMORY?MEMORY
  +--> ?PR?CHECKHITPOWERPRESS?MAIN
  +--> ?PR?WAITPOWERON?MAIN
  +--> ?PR?LOADLCDBEEP?LCD
  +--> ?PR?INITLCD?LCD
  +--> ?PR?SETBK4815PRAGRAM?CB_LINE
  +--> ?PR?INITKEY?KEYS
  +--> ?PR?INITMENU?MENU
  +--> ?PR?INITHANDLER?HANDLER
  +--> ?PR?EVENHANDLER?CB_LINE
  +--> ?PR?_LCD_BATT?TM1722

?PR?SYSTEMINIT?SYSTEM                            -----    -----
  +--> ?PR?SYSTEMCLK_INIT?SYSTEM
  +--> ?PR?IO_INIT?SYSTEM
  +--> ?PR?INITTIMER0?SYSTEM
  +--> ?PR?UART0_INIT?SYSTEM
  +--> ?PR?INITBEEP?SYSTEM
  +--> ?PR?INT1_INIT?SYSTEM

?PR?INITMEMORY?MEMORY                            -----    -----
  +--> ?PR?INITAT24C08?AT24C08
  +--> ?PR?LOADALLPARAM?MEMORY

?PR?LOADALLPARAM?MEMORY                          0211H    0004H
  +--> ?PR?_LOADDATA?MEMORY
  +--> ?PR?SETDEFAULTPARAM?HANDLER
  +--> ?PR?SAVEALLPARAM?MEMORY
  +--> ?PR?SAVEDTMF?MEMORY
  +--> ?PR?CHECKALLPARAM?HANDLER

?PR?_LOADDATA?MEMORY                             -----    -----
  +--> ?PR?_EEPROMREADBYTE?AT24C08

?PR?_EEPROMREADBYTE?AT24C08                      0215H    0003H
  +--> ?PR?AT24C08I2CSTART?AT24C08
BL51 BANKED LINKER/LOCATER V6.22                                                      06/02/2018  10:26:57  PAGE 7


  +--> ?PR?_AT24C08I2CWRITEBYTE?AT24C08
  +--> ?PR?AT24C08RXACK?AT24C08
  +--> ?PR?AT24C08I2CREADBYTE?AT24C08
  +--> ?PR?_AT24C08TXACK?AT24C08
  +--> ?PR?AT24C08I2CSTOP?AT24C08
  +--> ?PR?_DELAYMS?SYSTEM

?PR?AT24C08I2CSTART?AT24C08                      -----    -----
  +--> ?PR?_DELAYUS?SYSTEM

?PR?_AT24C08I2CWRITEBYTE?AT24C08                 0223H    0002H
  +--> ?PR?_DELAYUS?SYSTEM

?PR?AT24C08RXACK?AT24C08                         0223H    0001H
  +--> ?PR?_DELAYUS?SYSTEM
  +--> ?PR?AT24C08I2CSTOP?AT24C08

?PR?AT24C08I2CSTOP?AT24C08                       -----    -----
  +--> ?PR?_DELAYUS?SYSTEM

?PR?AT24C08I2CREADBYTE?AT24C08                   0218H    0002H
  +--> ?PR?_DELAYUS?SYSTEM

?PR?_AT24C08TXACK?AT24C08                        0218H    0001H
  +--> ?PR?_DELAYUS?SYSTEM

?PR?SETDEFAULTPARAM?HANDLER                      -----    -----
  +--> ?PR?CLEARFLAG?HANDLER

?PR?SAVEALLPARAM?MEMORY                          021CH    0004H
  +--> ?PR?_SAVEDATA?MEMORY

?PR?_SAVEDATA?MEMORY                             -----    -----
  +--> ?PR?_EEPROMWRITEBYTE?AT24C08

?PR?_EEPROMWRITEBYTE?AT24C08                     0220H    0003H
  +--> ?PR?AT24C08I2CSTART?AT24C08
  +--> ?PR?_AT24C08I2CWRITEBYTE?AT24C08
  +--> ?PR?AT24C08RXACK?AT24C08
  +--> ?PR?AT24C08I2CSTOP?AT24C08
  +--> ?PR?_DELAYMS?SYSTEM

?PR?SAVEDTMF?MEMORY                              0215H    0004H
  +--> ?PR?_SAVEDATA?MEMORY

?PR?CHECKHITPOWERPRESS?MAIN                      -----    -----
  +--> ?PR?_GET_AD?SYSTEM

?PR?_GET_AD?SYSTEM                               021CH    001AH
  +--> ?PR?_DELAYUS?SYSTEM

?PR?WAITPOWERON?MAIN                             -----    -----
  +--> ?PR?_DELAYMS?SYSTEM

?PR?INITLCD?LCD                                  -----    -----
  +--> ?PR?TM1722_INIT?TM1722
  +--> ?PR?_DELAYMS?SYSTEM
BL51 BANKED LINKER/LOCATER V6.22                                                      06/02/2018  10:26:57  PAGE 8


  +--> ?PR?SETCONTRY?LCD

?PR?TM1722_INIT?TM1722                           -----    -----
  +--> ?PR?_DELAYUS?SYSTEM
  +--> ?PR?_TM1722_WRITE_BYTE?TM1722
  +--> ?PR?TM1722_SHOW?TM1722

?PR?_TM1722_WRITE_BYTE?TM1722                    0220H    0001H
  +--> ?PR?_DELAYUS?SYSTEM

?PR?TM1722_SHOW?TM1722                           -----    -----
  +--> ?PR?_TM1722_WRITE_WORD?TM1722
  +--> ?PR?_DELAYMS?SYSTEM

?PR?_TM1722_WRITE_WORD?TM1722                    021EH    0002H
  +--> ?PR?_TM1722_WRITE_BYTE?TM1722

?PR?SETCONTRY?LCD                                -----    -----
  +--> ?PR?LCD_CLEAR?TM1722
  +--> ?PR?_SHOWCONTRY?TM1722
  +--> ?PR?_DELAYMS?SYSTEM
  +--> ?PR?CHECKHITPOWER?LCD
  +--> ?PR?TM1722_SHOW?TM1722

?PR?_SHOWCONTRY?TM1722                           -----    -----
  +--> ?PR?TM1722_SHOW?TM1722

?PR?CHECKHITPOWER?LCD                            -----    -----
  +--> ?PR?LCD_CLEAR?TM1722
  +--> ?PR?_LCD_NUM1?TM1722
  +--> ?PR?_LCD_NUM2?TM1722
  +--> ?PR?_LCD_NUM3?TM1722
  +--> ?PR?TM1722_SHOW?TM1722
  +--> ?PR?_DELAYMS?SYSTEM
  +--> ?PR?_SAVEDATA?MEMORY

?PR?_LCD_NUM1?TM1722                             -----    -----
  +--> ?CO?TM1722

?PR?_LCD_NUM2?TM1722                             -----    -----
  +--> ?CO?TM1722

?PR?_LCD_NUM3?TM1722                             -----    -----
  +--> ?CO?TM1722

?PR?EVENHANDLER?CB_LINE                          0211H    0006H
  +--> ?PR?BK4815SLEEP?KB4815
  +--> ?PR?LCD_CLEAR?TM1722
  +--> ?PR?SHOWCHANNEL?LCD
  +--> ?PR?_LCD_RX?TM1722
  +--> ?PR?_DELAYMS?SYSTEM
  +--> ?PR?_ISSENDCMDOK?UART
  +--> ?PR?KEYS_PRESS_SCAN?CB_LINE
  +--> ?PR?INITBK4815?KB4815
  +--> ?PR?ENTERBK4815RX?KB4815
  +--> ?PR?BK_DTMF_RECIVE?KB4815
  +--> ?PR?WIRELESSCHECKREC?CB_LINE
BL51 BANKED LINKER/LOCATER V6.22                                                      06/02/2018  10:26:57  PAGE 9


  +--> ?PR?PPT_PRESS?KEYS
  +--> ?PR?PWR_MUTE_PRESS?KEYS
  +--> ?PR?WRILESS_BUTTON?LCD
  +--> ?PR?TM1722_SHOW?TM1722

?PR?BK4815SLEEP?KB4815                           -----    -----
  +--> ?PR?_BK_WRITE_REG?KB4815

?PR?SHOWCHANNEL?LCD                              -----    -----
  +--> ?PR?LCD_CLEAR?TM1722
  +--> ?PR?CHECKTXPOWER?HANDLER
  +--> ?PR?_LCD_FM?TM1722
  +--> ?PR?_LCD_AM?TM1722
  +--> ?PR?_LCD_NUM1?TM1722
  +--> ?PR?_LCD_NUM2?TM1722
  +--> ?PR?_LCD_NUM3?TM1722
  +--> ?PR?_LCD_NUM5?TM1722
  +--> ?PR?_LCD_LOW?TM1722
  +--> ?PR?_LCD_ASQ?TM1722
  +--> ?PR?_LCD_NUM4?TM1722
  +--> ?PR?_LCD_EMG?TM1722
  +--> ?PR?_LCD_SCAN?TM1722
  +--> ?PR?_LCD_DW?TM1722
  +--> ?PR?RX_STRENGTH_SHOW?LCD
  +--> ?PR?TM1722_SHOW?TM1722

?PR?_LCD_NUM5?TM1722                             -----    -----
  +--> ?CO?TM1722

?PR?_LCD_NUM4?TM1722                             -----    -----
  +--> ?CO?TM1722

?PR?RX_STRENGTH_SHOW?LCD                         -----    -----
  +--> ?PR?_LCD_STRENGTH?TM1722

?PR?_ISSENDCMDOK?UART                            021EH    0002H
  +--> ?PR?_SENDCOMMAND?UART
  +--> ?PR?_DELAYMS?SYSTEM

?PR?_SENDCOMMAND?UART                            0220H    0005H
  +--> ?PR?_UART0SENDDATA?UART

?PR?_UART0SENDDATA?UART                          -----    -----
  +--> ?PR?_UART0SENDBYTE?UART

?PR?KEYS_PRESS_SCAN?CB_LINE                      -----    -----
  +--> ?PR?IS_KEY1_PRESS?KEYS
  +--> ?PR?IS_KEY2_PRESS?KEYS
  +--> ?PR?PPT_PRESS?KEYS
  +--> ?PR?PWR_MUTE_PRESS?KEYS
  +--> ?PR?TWINKLE_CONTROL?LCD
  +--> ?PR?CHECK_SCAN?KEYS
  +--> ?PR?CHECK_DW?KEYS
  +--> ?PR?TM1722_SHOW?TM1722
  +--> ?PR?_MENUOPERATE?MENU

?PR?IS_KEY1_PRESS?KEYS                           -----    -----
BL51 BANKED LINKER/LOCATER V6.22                                                      06/02/2018  10:26:57  PAGE 10


  +--> ?PR?_CHECK_KEY?KEYS
  +--> ?PR?_MENUOPERATE?MENU
  +--> ?PR?_GET_AD?SYSTEM

?PR?_CHECK_KEY?KEYS                              0218H    0004H
  +--> ?PR?_GET_AD?SYSTEM
  +--> ?PR?_DELAYMS?SYSTEM

?PR?_MENUOPERATE?MENU                            0219H    0002H
  +--> ?PR?CHANNEL_FUC?MENUEVENT
  +--> ?PR?PLAYBUTTONTONE?LCD
  +--> ?PR?CHANNEL_FAF_FUC?MENUEVENT
  +--> ?PR?CHANNEL_AF_FUC?MENUEVENT
  +--> ?PR?CHANNEL_LONG_AF_FUC?MENUEVENT
  +--> ?PR?CHANNEL_RFG_FUC?MENUEVENT
  +--> ?PR?CHANNEL_PPTUP_FUC?MENUEVENT
  +--> ?PR?SHOWSPEAKSWITCH?LCD
  +--> ?PR?_DELAYMS?SYSTEM
  +--> ?PR?SHOWCHANNEL?LCD
  +--> ?PR?CHANNEL_DN_FUC?MENUEVENT
  +--> ?PR?_GET_AD?SYSTEM
  +--> ?PR?CHANNEL_LONGDN_FUC?MENUEVENT
  +--> ?PR?CHANNEL_UP_FUC?MENUEVENT
  +--> ?PR?CHANNEL_LONGUP_FUC?MENUEVENT
  +--> ?PR?CHANNEL_SQ_FUC?MENUEVENT
  +--> ?PR?CHANNEL_LONGSQ_FUC?MENUEVENT
  +--> ?PR?CHANNEL_SCAN_FUC?MENUEVENT
  +--> ?PR?CHANNEL_VOLUP_FUC?MENUEVENT
  +--> ?PR?CHANNEL_VOLDN_FUC?MENUEVENT
  +--> ?PR?CHANNEL_DOUBLEF_FUC?MENUEVENT
  +--> ?PR?CHANNEL_LONGF_PB_FUC?MENUEVENT
  +--> ?PR?FACTORY_SETTING_FUC?MENUEVENT
  +--> ?PR?CHANNEL_EMG_FUC?MENUEVENT
  +--> ?PR?CHANNEL_PPTDN_FUC?MENUEVENT
  +--> ?PR?CHANNEL_DOUBLEMUTE_FUC?MENUEVENT
  +--> ?PR?CHANNEL_LONGPOWER_FUC?MENUEVENT
  +--> ?PR?CHANNEL_DW_FUC?MENUEVENT
  +--> ?PR?CHANNEL_RFG_UP_FUC?MENUEVENT
  +--> ?PR?CHANNEL_RFG_DN_FUC?MENUEVENT
  +--> ?PR?CHANNEL_MENU_BACK_FUC?MENUEVENT
  +--> ?PR?CHANNEL_TABLE_FUC?MENUEVENT
  +--> ?PR?CHANNEL_SQ_VOLUP_FUC?MENUEVENT
  +--> ?PR?CHANNEL_SQ_VOLDN_FUC?MENUEVENT
  +--> ?PR?CHANNEL_SQ_SET_FUC?MENUEVENT
  +--> ?PR?CHANNEL_SQ_SET_UP_FUC?MENUEVENT
  +--> ?PR?CHANNEL_SQ_SET_DN_FUC?MENUEVENT
  +--> ?PR?CHANNEL_FRECAL_FUC?MENUEVENT
  +--> ?PR?CHANNEL_SQ_SET_F_FUC?MENUEVENT
  +--> ?PR?CHANNEL_SCAN_DN_FUC?MENUEVENT
  +--> ?PR?CHANNEL_SCAN_UP_FUC?MENUEVENT
  +--> ?PR?CHANNEL_SCAN_SCAN_FUC?MENUEVENT
  +--> ?PR?CHANNEL_LONGF_PB_UP_FUC?MENUEVENT
  +--> ?PR?CHANNEL_LONGF_PB_DN_FUC?MENUEVENT
  +--> ?PR?CHANNEL_LONGF_F_FB_FUC?MENUEVENT
  +--> ?PR?CHANNEL_LONGF_F_F_FC_UP_FUC?MENUE...
  +--> ?PR?CHANNEL_LONGF_F_F_FC_DN_FUC?MENUE...
  +--> ?PR?CHANNEL_LONGF_F_FB_UP_FUC?MENUEVENT
BL51 BANKED LINKER/LOCATER V6.22                                                      06/02/2018  10:26:57  PAGE 11


  +--> ?PR?CHANNEL_LONGF_F_FB_DN_FUC?MENUEVENT
  +--> ?PR?CHANNEL_LONGF_F_F_FC_FUC?MENUEVENT
  +--> ?PR?CHANNEL_LOCK_PRESSOTHER_FUC?MENUE...
  +--> ?PR?CHANNEL_FAF_DN_FUC?MENUEVENT
  +--> ?PR?CHANNEL_FAF_UP_FUC?MENUEVENT
  +--> ?PR?CHANNEL_FAF_PPT_FUC?MENUEVENT
  +--> ?PR?CHANNEL_FUPAFRFGSCAN_DN_FUC?MENUE...
  +--> ?PR?CHANNEL_FUPAFRFGSCAN_UP_FUC?MENUE...
  +--> ?PR?LCD_CLEAR?TM1722
  +--> ?PR?TM1722_SHOW?TM1722
  +--> ?PR?SHOWTABLE?LCD

?PR?CHANNEL_FUC?MENUEVENT                        -----    -----
  +--> ?PR?SHOWCHANNEL?LCD

?PR?CHANNEL_FAF_FUC?MENUEVENT                    021BH    0001H
  +--> ?PR?_DELAYMS?SYSTEM
  +--> ?PR?LCD_CLEAR?TM1722
  +--> ?PR?_SAVEDATA?MEMORY
  +--> ?PR?_SHOWCONTRY?TM1722

?PR?CHANNEL_AF_FUC?MENUEVENT                     021BH    0003H
  +--> ?PR?CHECKTXPOWER?HANDLER
  +--> ?PR?_ISSENDCMDOK?UART
  +--> ?PR?_SAVEDATA?MEMORY
  +--> ?PR?SHOWCHANNEL?LCD
  +--> ?PR?_DELAYMS?SYSTEM

?PR?CHANNEL_LONG_AF_FUC?MENUEVENT                021BH    0001H
  +--> ?PR?PLAYBUTTONTONE?LCD
  +--> ?PR?_ISSENDCMDOK?UART
  +--> ?PR?LCD_CLEAR?TM1722
  +--> ?PR?_SHOWCONTRY?TM1722
  +--> ?PR?_DELAYMS?SYSTEM
  +--> ?PR?SHOWCHANNEL?LCD
  +--> ?PR?CLOSE_SQ?CB_LINE
  +--> ?PR?CHECKTXPOWER?HANDLER

?PR?CLOSE_SQ?CB_LINE                             -----    -----
  +--> ?PR?_LCD_RX?TM1722

?PR?CHANNEL_RFG_FUC?MENUEVENT                    -----    -----
  +--> ?PR?_DELAYMS?SYSTEM
  +--> ?PR?SHOWRFG?LCD

?PR?SHOWRFG?LCD                                  -----    -----
  +--> ?PR?LCD_CLEAR?TM1722
  +--> ?PR?_LCD_NUM1?TM1722
  +--> ?PR?_LCD_NUM2?TM1722
  +--> ?PR?_LCD_NUM5?TM1722
  +--> ?PR?TM1722_SHOW?TM1722

?PR?CHANNEL_PPTUP_FUC?MENUEVENT                  -----    -----
  +--> ?PR?_ISSENDCMDOK?UART
  +--> ?PR?_DELAYMS?SYSTEM
  +--> ?PR?_LCD_TX?TM1722
  +--> ?PR?_LCD_STRENGTH?TM1722
BL51 BANKED LINKER/LOCATER V6.22                                                      06/02/2018  10:26:57  PAGE 12


  +--> ?PR?CLOSE_SQ?CB_LINE
  +--> ?PR?_SAVEDATA?MEMORY
  +--> ?PR?SHOWCHANNEL?LCD
  +--> ?PR?ENTERBK4815RX?KB4815
  +--> ?PR?TM1722_SHOW?TM1722

?PR?ENTERBK4815RX?KB4815                         0226H    000BH
  +--> ?PR?_BK_WRITE_REG?KB4815
  +--> ?PR?_DELAYMS?SYSTEM

?PR?SHOWSPEAKSWITCH?LCD                          -----    -----
  +--> ?PR?LCD_CLEAR?TM1722
  +--> ?PR?_LCD_NUM1?TM1722
  +--> ?PR?_LCD_NUM2?TM1722
  +--> ?PR?_LCD_NUM4?TM1722
  +--> ?PR?_LCD_NUM5?TM1722
  +--> ?PR?_LCD_NUM3?TM1722
  +--> ?PR?TM1722_SHOW?TM1722

?PR?CHANNEL_DN_FUC?MENUEVENT                     021BH    0002H
  +--> ?PR?CHECKCHANNEL?MENUEVENT
  +--> ?PR?CHECKTXPOWER?HANDLER
  +--> ?PR?_ISSENDCMDOK?UART
  +--> ?PR?CLOSE_SQ?CB_LINE
  +--> ?PR?_SAVEDATA?MEMORY
  +--> ?PR?SHOWCHANNEL?LCD
  +--> ?PR?LCDSHOWERROR?LCD

?PR?LCDSHOWERROR?LCD                             -----    -----
  +--> ?PR?_LCD_NUM1?TM1722
  +--> ?PR?_LCD_NUM2?TM1722
  +--> ?PR?TM1722_SHOW?TM1722

?PR?CHANNEL_LONGDN_FUC?MENUEVENT                 021BH    0002H
  +--> ?PR?CHECKCHANNEL?MENUEVENT
  +--> ?PR?CHECKTXPOWER?HANDLER
  +--> ?PR?_ISSENDCMDOK?UART
  +--> ?PR?CLOSE_SQ?CB_LINE
  +--> ?PR?_SAVEDATA?MEMORY
  +--> ?PR?SHOWCHANNEL?LCD
  +--> ?PR?LCDSHOWERROR?LCD
  +--> ?PR?_DELAYMS?SYSTEM

?PR?CHANNEL_UP_FUC?MENUEVENT                     021BH    0003H
  +--> ?PR?CHECKCHANNEL?MENUEVENT
  +--> ?PR?CHECKTXPOWER?HANDLER
  +--> ?PR?_ISSENDCMDOK?UART
  +--> ?PR?CLOSE_SQ?CB_LINE
  +--> ?PR?_SAVEDATA?MEMORY
  +--> ?PR?SHOWCHANNEL?LCD
  +--> ?PR?LCDSHOWERROR?LCD

?PR?CHANNEL_LONGUP_FUC?MENUEVENT                 021BH    0003H
  +--> ?PR?CHECKCHANNEL?MENUEVENT
  +--> ?PR?CHECKTXPOWER?HANDLER
  +--> ?PR?_ISSENDCMDOK?UART
  +--> ?PR?CLOSE_SQ?CB_LINE
BL51 BANKED LINKER/LOCATER V6.22                                                      06/02/2018  10:26:57  PAGE 13


  +--> ?PR?_SAVEDATA?MEMORY
  +--> ?PR?SHOWCHANNEL?LCD
  +--> ?PR?LCDSHOWERROR?LCD
  +--> ?PR?_DELAYMS?SYSTEM

?PR?CHANNEL_SQ_FUC?MENUEVENT                     -----    -----
  +--> ?PR?SHOWSQ?LCD
  +--> ?PR?SHOWASQ?LCD

?PR?SHOWSQ?LCD                                   -----    -----
  +--> ?PR?LCD_CLEAR?TM1722
  +--> ?PR?_LCD_NUM1?TM1722
  +--> ?PR?_LCD_NUM2?TM1722
  +--> ?PR?_LCD_NUM4?TM1722
  +--> ?PR?_LCD_NUM5?TM1722
  +--> ?PR?TM1722_SHOW?TM1722

?PR?SHOWASQ?LCD                                  -----    -----
  +--> ?PR?LCD_CLEAR?TM1722
  +--> ?PR?_LCD_NUM1?TM1722
  +--> ?PR?_LCD_NUM2?TM1722
  +--> ?PR?_LCD_NUM4?TM1722
  +--> ?PR?_LCD_NUM5?TM1722
  +--> ?PR?TM1722_SHOW?TM1722

?PR?CHANNEL_LONGSQ_FUC?MENUEVENT                 -----    -----
  +--> ?PR?_ISSENDCMDOK?UART
  +--> ?PR?LCDSHOWERROR?LCD
  +--> ?PR?_SAVEDATA?MEMORY
  +--> ?PR?SHOWCHANNEL?LCD

?PR?CHANNEL_VOLUP_FUC?MENUEVENT                  -----    -----
  +--> ?PR?_ISSENDCMDOK?UART
  +--> ?PR?_SAVEDATA?MEMORY
  +--> ?PR?SHOWVOL?LCD
  +--> ?PR?_DELAYMS?SYSTEM

?PR?SHOWVOL?LCD                                  -----    -----
  +--> ?PR?LCD_CLEAR?TM1722
  +--> ?PR?_LCD_NUM1?TM1722
  +--> ?PR?_LCD_NUM2?TM1722
  +--> ?PR?TM1722_SHOW?TM1722

?PR?CHANNEL_VOLDN_FUC?MENUEVENT                  -----    -----
  +--> ?PR?_ISSENDCMDOK?UART
  +--> ?PR?_SAVEDATA?MEMORY
  +--> ?PR?SHOWVOL?LCD
  +--> ?PR?_DELAYMS?SYSTEM

?PR?CHANNEL_DOUBLEF_FUC?MENUEVENT                -----    -----
  +--> ?PR?_LCD_LOCK?TM1722

?PR?CHANNEL_LONGF_PB_FUC?MENUEVENT               -----    -----
  +--> ?PR?SHOWBP?LCD

?PR?SHOWBP?LCD                                   -----    -----
  +--> ?PR?LCD_CLEAR?TM1722
BL51 BANKED LINKER/LOCATER V6.22                                                      06/02/2018  10:26:57  PAGE 14


  +--> ?PR?_LCD_NUM1?TM1722
  +--> ?PR?_LCD_NUM2?TM1722
  +--> ?PR?_LCD_NUM3?TM1722
  +--> ?PR?_LCD_NUM4?TM1722
  +--> ?PR?_LCD_NUM5?TM1722
  +--> ?PR?TM1722_SHOW?TM1722

?PR?FACTORY_SETTING_FUC?MENUEVENT                -----    -----
  +--> ?PR?LCD_CLEAR?TM1722
  +--> ?PR?SETDEFAULTPARAM?HANDLER
  +--> ?PR?SAVEALLPARAM?MEMORY
  +--> ?PR?SHOWFACTORYSETING?LCD
  +--> ?PR?SHOWCHANNEL?LCD
  +--> ?PR?_ISSENDCMDOK?UART

?PR?SHOWFACTORYSETING?LCD                        -----    -----
  +--> ?PR?INITLCD?LCD

?PR?CHANNEL_EMG_FUC?MENUEVENT                    021BH    0002H
  +--> ?PR?CHECKTXPOWER?HANDLER
  +--> ?PR?_ISSENDCMDOK?UART
  +--> ?PR?_SAVEDATA?MEMORY
  +--> ?PR?SHOWCHANNEL?LCD
  +--> ?PR?LCDSHOWERROR?LCD

?PR?CHANNEL_PPTDN_FUC?MENUEVENT                  -----    -----
  +--> ?PR?_ISSENDCMDOK?UART
  +--> ?PR?SHOWCHANNEL?LCD
  +--> ?PR?_LCD_TX?TM1722
  +--> ?PR?_LCD_STRENGTH?TM1722
  +--> ?PR?_LCD_RX?TM1722
  +--> ?PR?STARTBK4815TX?KB4815
  +--> ?PR?TM1722_SHOW?TM1722

?PR?STARTBK4815TX?KB4815                         021BH    000BH
  +--> ?PR?_BK_WRITE_REG?KB4815
  +--> ?PR?_DELAYMS?SYSTEM
  +--> ?PR?_BK_READ_REG?KB4815
  +--> ?PR?ISDTMFSENDOK?KB4815
  +--> ?PR?BK_RX2TX?KB4815
  +--> ?PR?_LCD_TX?TM1722
  +--> ?PR?_LCD_STRENGTH?TM1722
  +--> ?PR?ENTERBK4815RX?KB4815

?PR?_BK_READ_REG?KB4815                          0228H    0002H

?PR?ISDTMFSENDOK?KB4815                          -----    -----
  +--> ?PR?BK_DTMF_INTERUPT_CLEAR?KB4815
  +--> ?PR?_BK_DTMF_TX?KB4815
  +--> ?PR?ENTERBK4815RX?KB4815
  +--> ?PR?_DELAYMS?SYSTEM
  +--> ?PR?BK_DTMF_RX_READ?KB4815

?PR?BK_DTMF_INTERUPT_CLEAR?KB4815                0226H    0002H
  +--> ?PR?_BK_READ_REG?KB4815
  +--> ?PR?_BK_WRITE_REG?KB4815

BL51 BANKED LINKER/LOCATER V6.22                                                      06/02/2018  10:26:57  PAGE 15


?PR?_BK_DTMF_TX?KB4815                           -----    -----
  +--> ?PR?_BK_READ_REG?KB4815
  +--> ?PR?_BK_WRITE_REG?KB4815
  +--> ?PR?BK_RX2TX?KB4815
  +--> ?PR?BK_DISABLE_TX_INBANDSIGNAL?KB4815
  +--> ?CO?KB4815
  +--> ?PR?BK_ENABLE_TX_INBANDSIGNAL?KB4815
  +--> ?PR?_DELAYMS?SYSTEM

?PR?BK_RX2TX?KB4815                              -----    -----
  +--> ?PR?_BK_WRITE_REG?KB4815
  +--> ?PR?_BK_READ_REG?KB4815

?PR?BK_DISABLE_TX_INBANDSIGNAL?KB4815            -----    -----
  +--> ?PR?_BK_READ_REG?KB4815
  +--> ?PR?_BK_WRITE_REG?KB4815

?PR?BK_ENABLE_TX_INBANDSIGNAL?KB4815             -----    -----
  +--> ?PR?_BK_READ_REG?KB4815
  +--> ?PR?_BK_WRITE_REG?KB4815

?PR?BK_DTMF_RX_READ?KB4815                       -----    -----
  +--> ?PR?_BK_READ_REG?KB4815

?PR?CHANNEL_DOUBLEMUTE_FUC?MENUEVENT             -----    -----
  +--> ?PR?_ISSENDCMDOK?UART
  +--> ?PR?_LCD_NUM4?TM1722

?PR?CHANNEL_LONGPOWER_FUC?MENUEVENT              -----    -----
  +--> ?PR?BK4815SLEEP?KB4815
  +--> ?PR?LCD_CLEAR?TM1722
  +--> ?PR?TM1722_SHOW?TM1722
  +--> ?PR?SAVEALLPARAM?MEMORY

?PR?CHANNEL_DW_FUC?MENUEVENT                     -----    -----
  +--> ?PR?SHOWCHANNEL?LCD
  +--> ?PR?CHECKTXPOWER?HANDLER
  +--> ?PR?_ISSENDCMDOK?UART
  +--> ?PR?LCDSHOWERROR?LCD

?PR?CHANNEL_RFG_UP_FUC?MENUEVENT                 -----    -----
  +--> ?PR?_ISSENDCMDOK?UART
  +--> ?PR?_SAVEDATA?MEMORY
  +--> ?PR?SHOWRFG?LCD
  +--> ?PR?_DELAYMS?SYSTEM

?PR?CHANNEL_RFG_DN_FUC?MENUEVENT                 -----    -----
  +--> ?PR?_ISSENDCMDOK?UART
  +--> ?PR?_SAVEDATA?MEMORY
  +--> ?PR?SHOWRFG?LCD
  +--> ?PR?_DELAYMS?SYSTEM

?PR?CHANNEL_MENU_BACK_FUC?MENUEVENT              -----    -----
  +--> ?PR?SHOWCHANNEL?LCD
  +--> ?PR?_LCD_LOCK?TM1722
  +--> ?PR?SAVEALLPARAM?MEMORY
  +--> ?PR?SAVEMENUPARAM?MEMORY
BL51 BANKED LINKER/LOCATER V6.22                                                      06/02/2018  10:26:57  PAGE 16


  +--> ?PR?_DELAYMS?SYSTEM

?PR?SAVEMENUPARAM?MEMORY                         -----    -----
  +--> ?PR?_SAVEDATA?MEMORY

?PR?CHANNEL_TABLE_FUC?MENUEVENT                  -----    -----
  +--> ?PR?SHOWTABLE?LCD

?PR?SHOWTABLE?LCD                                -----    -----
  +--> ?PR?LCD_CLEAR?TM1722
  +--> ?PR?_LCD_NUM3?TM1722
  +--> ?PR?_LCD_NUM4?TM1722
  +--> ?PR?_LCD_NUM5?TM1722
  +--> ?PR?TM1722_SHOW?TM1722

?PR?CHANNEL_SQ_VOLUP_FUC?MENUEVENT               021BH    0001H
  +--> ?PR?_ISSENDCMDOK?UART
  +--> ?PR?_SAVEDATA?MEMORY
  +--> ?PR?SHOWSQ?LCD
  +--> ?PR?SHOWASQ?LCD
  +--> ?PR?_DELAYMS?SYSTEM

?PR?CHANNEL_SQ_VOLDN_FUC?MENUEVENT               021BH    0001H
  +--> ?PR?_ISSENDCMDOK?UART
  +--> ?PR?_SAVEDATA?MEMORY
  +--> ?PR?SHOWSQ?LCD
  +--> ?PR?SHOWASQ?LCD
  +--> ?PR?_DELAYMS?SYSTEM

?PR?CHANNEL_SQ_SET_FUC?MENUEVENT                 -----    -----
  +--> ?PR?_ISSENDCMDOK?UART
  +--> ?PR?SHOWSQRESET?LCD

?PR?SHOWSQRESET?LCD                              -----    -----
  +--> ?PR?LCD_CLEAR?TM1722
  +--> ?PR?_LCD_NUM4?TM1722
  +--> ?PR?_LCD_NUM5?TM1722
  +--> ?PR?_LCD_NUM3?TM1722
  +--> ?PR?_LCD_NUM1?TM1722
  +--> ?PR?_LCD_NUM2?TM1722
  +--> ?PR?_LCD_ASQ?TM1722
  +--> ?PR?TM1722_SHOW?TM1722

?PR?CHANNEL_SQ_SET_UP_FUC?MENUEVENT              021BH    0001H
  +--> ?PR?_ISSENDCMDOK?UART
  +--> ?PR?SHOWSQRESET?LCD
  +--> ?PR?_DELAYMS?SYSTEM

?PR?CHANNEL_SQ_SET_DN_FUC?MENUEVENT              021BH    0001H
  +--> ?PR?_ISSENDCMDOK?UART
  +--> ?PR?SHOWSQRESET?LCD
  +--> ?PR?_DELAYMS?SYSTEM

?PR?CHANNEL_FRECAL_FUC?MENUEVENT                 -----    -----
  +--> ?PR?SHOWFRECALSET?LCD

?PR?SHOWFRECALSET?LCD                            -----    -----
BL51 BANKED LINKER/LOCATER V6.22                                                      06/02/2018  10:26:57  PAGE 17


  +--> ?PR?_LCD_NUM1?TM1722
  +--> ?PR?_LCD_NUM2?TM1722
  +--> ?PR?_LCD_NUM3?TM1722
  +--> ?PR?_LCD_NUM4?TM1722
  +--> ?PR?_LCD_NUM5?TM1722

?PR?CHANNEL_SQ_SET_F_FUC?MENUEVENT               -----    -----
  +--> ?PR?SHOWSQRESET?LCD

?PR?CHANNEL_SCAN_SCAN_FUC?MENUEVENT              -----    -----
  +--> ?PR?SHOWCHANNEL?LCD
  +--> ?PR?_DELAYMS?SYSTEM

?PR?CHANNEL_LONGF_PB_UP_FUC?MENUEVENT            -----    -----
  +--> ?PR?_SAVEDATA?MEMORY
  +--> ?PR?SHOWBP?LCD
  +--> ?PR?_DELAYMS?SYSTEM

?PR?CHANNEL_LONGF_PB_DN_FUC?MENUEVENT            -----    -----
  +--> ?PR?_SAVEDATA?MEMORY
  +--> ?PR?SHOWBP?LCD
  +--> ?PR?_DELAYMS?SYSTEM

?PR?CHANNEL_LONGF_F_FB_FUC?MENUEVENT             -----    -----
  +--> ?PR?SHOWFB?LCD

?PR?SHOWFB?LCD                                   -----    -----
  +--> ?PR?LCD_CLEAR?TM1722
  +--> ?PR?_LCD_NUM1?TM1722
  +--> ?PR?_LCD_NUM2?TM1722
  +--> ?PR?_LCD_NUM3?TM1722
  +--> ?PR?_LCD_NUM4?TM1722
  +--> ?PR?_LCD_NUM5?TM1722
  +--> ?PR?TM1722_SHOW?TM1722

?PR?CHANNEL_LONGF_F_F_FC_UP_FUC?MENUE...         -----    -----
  +--> ?PR?_SAVEDATA?MEMORY
  +--> ?PR?SHOWFC?LCD
  +--> ?PR?_DELAYMS?SYSTEM

?PR?SHOWFC?LCD                                   -----    -----
  +--> ?PR?LCD_CLEAR?TM1722
  +--> ?PR?_LCD_NUM1?TM1722
  +--> ?PR?_LCD_NUM2?TM1722
  +--> ?PR?_LCD_NUM3?TM1722
  +--> ?PR?TM1722_SHOW?TM1722

?PR?CHANNEL_LONGF_F_F_FC_DN_FUC?MENUE...         -----    -----
  +--> ?PR?_DELAYMS?SYSTEM
  +--> ?PR?_SAVEDATA?MEMORY
  +--> ?PR?SHOWFC?LCD

?PR?CHANNEL_LONGF_F_FB_UP_FUC?MENUEVENT          -----    -----
  +--> ?PR?_SAVEDATA?MEMORY
  +--> ?PR?SHOWFB?LCD
  +--> ?PR?_DELAYMS?SYSTEM

BL51 BANKED LINKER/LOCATER V6.22                                                      06/02/2018  10:26:57  PAGE 18


?PR?CHANNEL_LONGF_F_FB_DN_FUC?MENUEVENT          -----    -----
  +--> ?PR?_SAVEDATA?MEMORY
  +--> ?PR?SHOWFB?LCD
  +--> ?PR?_DELAYMS?SYSTEM

?PR?CHANNEL_LONGF_F_F_FC_FUC?MENUEVENT           -----    -----
  +--> ?PR?SHOWFC?LCD

?PR?CHANNEL_LOCK_PRESSOTHER_FUC?MENUE...         021BH    0001H
  +--> ?PR?_LCD_LOCK?TM1722
  +--> ?PR?TM1722_SHOW?TM1722
  +--> ?PR?_DELAYMS?SYSTEM

?PR?CHANNEL_FAF_DN_FUC?MENUEVENT                 -----    -----
  +--> ?PR?LCD_CLEAR?TM1722
  +--> ?PR?_SHOWCONTRY?TM1722
  +--> ?PR?_DELAYMS?SYSTEM

?PR?CHANNEL_FAF_UP_FUC?MENUEVENT                 -----    -----
  +--> ?PR?LCD_CLEAR?TM1722
  +--> ?PR?_SHOWCONTRY?TM1722
  +--> ?PR?_DELAYMS?SYSTEM

?PR?CHANNEL_FAF_PPT_FUC?MENUEVENT                021BH    0001H
  +--> ?PR?_DELAYMS?SYSTEM
  +--> ?PR?CHECKTXPOWER?HANDLER
  +--> ?PR?_ISSENDCMDOK?UART
  +--> ?PR?SAVEALLPARAM?MEMORY
  +--> ?PR?INITMENU?MENU
  +--> ?PR?LCD_CLEAR?TM1722
  +--> ?PR?SHOWCHANNEL?LCD
  +--> ?PR?LCDSHOWERROR?LCD

?PR?CHANNEL_FUPAFRFGSCAN_DN_FUC?MENUE...         -----    -----
  +--> ?PR?SHOWTABLE?LCD
  +--> ?PR?_DELAYMS?SYSTEM

?PR?CHANNEL_FUPAFRFGSCAN_UP_FUC?MENUE...         -----    -----
  +--> ?PR?SHOWTABLE?LCD
  +--> ?PR?_DELAYMS?SYSTEM

?PR?IS_KEY2_PRESS?KEYS                           0217H    0001H
  +--> ?PR?_CHECK_KEY?KEYS
  +--> ?PR?CHANNEL_FUC?MENUEVENT
  +--> ?PR?SAVEMENUPARAM?MEMORY
  +--> ?PR?SAVEALLPARAM?MEMORY
  +--> ?PR?_LCD_LOCK?TM1722
  +--> ?PR?_MENUOPERATE?MENU
  +--> ?PR?_GET_AD?SYSTEM

?PR?PPT_PRESS?KEYS                               0217H    0002H
  +--> ?PR?_MENUOPERATE?MENU

?PR?PWR_MUTE_PRESS?KEYS                          -----    -----
  +--> ?PR?_MENUOPERATE?MENU
  +--> ?PR?PLAYBUTTONTONE?LCD

BL51 BANKED LINKER/LOCATER V6.22                                                      06/02/2018  10:26:57  PAGE 19


?PR?TWINKLE_CONTROL?LCD                          -----    -----
  +--> ?PR?_LCD_EMG?TM1722
  +--> ?PR?RX_STRENGTH_SHOW?LCD
  +--> ?PR?_LCD_NUM1?TM1722
  +--> ?PR?_LCD_NUM2?TM1722
  +--> ?PR?_LCD_SCAN?TM1722
  +--> ?PR?_LCD_DW?TM1722
  +--> ?PR?_LCD_NUM4?TM1722
  +--> ?PR?_LCD_NUM5?TM1722
  +--> ?PR?_LCD_NUM3?TM1722
  +--> ?PR?_LCD_ASQ?TM1722

?PR?CHECK_SCAN?KEYS                              -----    -----
  +--> ?PR?CHANNEL_UP_FUC?MENUEVENT
  +--> ?PR?CHANNEL_DN_FUC?MENUEVENT

?PR?CHECK_DW?KEYS                                0217H    0002H
  +--> ?PR?CHECKTXPOWER?HANDLER
  +--> ?PR?_ISSENDCMDOK?UART
  +--> ?PR?CLOSE_SQ?CB_LINE
  +--> ?PR?SHOWCHANNEL?LCD

?PR?INITBK4815?KB4815                            0217H    0002H
  +--> ?PR?_DELAYUS?SYSTEM
  +--> ?PR?_DELAYMS?SYSTEM
  +--> ?PR?_BK_WRITE_REG?KB4815
  +--> ?PR?BK_RAMP_TABLE_INIT?KB4815
  +--> ?PR?INITREG01_19?KB4815
  +--> ?PR?_BK_READ_REG?KB4815
  +--> ?CO?KB4815
  +--> ?PR?ENTERBK4815RX?KB4815

?PR?BK_RAMP_TABLE_INIT?KB4815                    -----    -----
  +--> ?PR?_BK_WRITE_REG?KB4815

?PR?INITREG01_19?KB4815                          -----    -----
  +--> ?PR?_BK_WRITE_REG?KB4815

?PR?BK_DTMF_RECIVE?KB4815                        0217H    0001H
  +--> ?PR?BK_DTMF_RX_READ?KB4815
  +--> ?PR?_DELAYMS?SYSTEM
  +--> ?PR?_BK_DTMF_TX?KB4815
  +--> ?PR?ENTERBK4815RX?KB4815
  +--> ?PR?BK_TX2RX?KB4815
  +--> ?PR?BK_DTMF_INTERUPT_CLEAR?KB4815

?PR?BK_TX2RX?KB4815                              -----    -----
  +--> ?PR?_BK_WRITE_REG?KB4815

?PR?WIRELESSCHECKREC?CB_LINE                     0217H    0002H
  +--> ?PR?GET4815RSSI?CB_LINE
  +--> ?PR?_LCD_RX?TM1722
  +--> ?PR?ENTERBK4815RX?KB4815
  +--> ?PR?BK_TX2RX?KB4815

?PR?GET4815RSSI?CB_LINE                          0219H    0005H
  +--> ?PR?BK4815RSSIANDSNR?KB4815
BL51 BANKED LINKER/LOCATER V6.22                                                      06/02/2018  10:26:57  PAGE 20


  +--> ?PR?_DELAYUS?SYSTEM

?PR?BK4815RSSIANDSNR?KB4815                      -----    -----
  +--> ?PR?_BK_READ_REG?KB4815



SYMBOL TABLE OF MODULE:  CB589P (MAIN)

  VALUE           TYPE          NAME
  ----------------------------------

  -------         MODULE        MAIN
  C:0000H         SYMBOL        _ICE_DUMMY_
  D:0080H         PUBLIC        P0
  D:0090H         PUBLIC        P1
  D:00A0H         PUBLIC        P2
  D:00B0H         PUBLIC        P3
  C:5D00H         PUBLIC        irq_timer1
  B:00A8H.7       PUBLIC        EA
  C:61DCH         PUBLIC        waitPowerOn
  D:00A8H         PUBLIC        IE
  X:0287H         PUBLIC        sendDtmfT
  D:00C8H         PUBLIC        T2CON1
  C:5B98H         PUBLIC        main
  X:0288H         PUBLIC        timePowOn
  C:72B6H         PUBLIC        INT0_Irq
  C:635CH         PUBLIC        CheckHitPowerPress
  X:028AH         PUBLIC        ButtonToneTime
  B:00A0H.4       PUBLIC        P24
  B:0090H.5       PUBLIC        P15
  B:0090H.6       PUBLIC        P16
  D:008CH         PUBLIC        TH0
  D:008AH         PUBLIC        TL0
  B:0088H.4       PUBLIC        TR0
  D:0098H         PUBLIC        SCON0
  D:00D8H         PUBLIC        ADCON
  D:00C0H         PUBLIC        IIC0CON
  X:028BH         PUBLIC        isScanInrupt
  X:028CH         PUBLIC        isButtonTone
  D:00ACH         PUBLIC        EINTCS0
  -------         PROC          IRQ_TIMER1
  C:5D00H         LINE#         26
  C:5D08H         LINE#         28
  C:5D0EH         LINE#         29
  C:5D11H         LINE#         30
  C:5D11H         LINE#         31
  C:5D16H         LINE#         32
  C:5D1CH         LINE#         33
  C:5D1CH         LINE#         34
  C:5D24H         LINE#         35
  C:5D24H         LINE#         36
  C:5D2AH         LINE#         37
  C:5D2DH         LINE#         38
  C:5D2DH         LINE#         39
  C:5D34H         LINE#         40
  C:5D41H         LINE#         41
BL51 BANKED LINKER/LOCATER V6.22                                                      06/02/2018  10:26:57  PAGE 21


  C:5D41H         LINE#         42
  C:5D43H         LINE#         43
  C:5D43H         LINE#         44
  C:5D48H         LINE#         45
  C:5D48H         LINE#         46
  C:5D48H         LINE#         48
  C:5D58H         LINE#         49
  C:5D58H         LINE#         50
  C:5D61H         LINE#         51
  C:5D61H         LINE#         52
  C:5D64H         LINE#         53
  C:5D64H         LINE#         54
  C:5D64H         LINE#         55
  C:5D66H         LINE#         56
  C:5D69H         LINE#         57
  C:5D6CH         LINE#         58
  C:5D6EH         LINE#         59
  -------         ENDPROC       IRQ_TIMER1
  -------         PROC          WAITPOWERON
  C:61DCH         LINE#         62
  C:61DCH         LINE#         63
  C:61DCH         LINE#         64
  C:61E2H         LINE#         65
  C:61E2H         LINE#         66
  C:61F2H         LINE#         67
  C:61F2H         LINE#         68
  C:6200H         LINE#         69
  C:6207H         LINE#         70
  C:6216H         LINE#         71
  C:6216H         LINE#         72
  C:621CH         LINE#         73
  C:621CH         LINE#         74
  C:621EH         LINE#         76
  C:621EH         LINE#         77
  C:6225H         LINE#         78
  C:6225H         LINE#         79
  C:6227H         LINE#         82
  C:6229H         LINE#         87
  -------         ENDPROC       WAITPOWERON
  -------         PROC          CHECKHITPOWERPRESS
  -------         DO            
  D:0007H         SYMBOL        i
  -------         ENDDO         
  C:635CH         LINE#         89
  C:635CH         LINE#         90
  C:635CH         LINE#         92
  C:6361H         LINE#         93
  C:6366H         LINE#         94
  C:636AH         LINE#         95
  C:636FH         LINE#         96
  C:6374H         LINE#         97
  C:6382H         LINE#         98
  C:6382H         LINE#         99
  C:6385H         LINE#         100
  C:6385H         LINE#         101
  C:6397H         LINE#         102
  C:6397H         LINE#         103
BL51 BANKED LINKER/LOCATER V6.22                                                      06/02/2018  10:26:57  PAGE 22


  C:639FH         LINE#         104
  C:639FH         LINE#         105
  C:63A5H         LINE#         106
  C:63A5H         LINE#         107
  C:63A5H         LINE#         108
  -------         ENDPROC       CHECKHITPOWERPRESS
  -------         PROC          MAIN
  -------         DO            
  X:0210H         SYMBOL        dat
  -------         ENDDO         
  C:5B98H         LINE#         110
  C:5B98H         LINE#         111
  C:5B98H         LINE#         113
  C:5B9BH         LINE#         114
  C:5B9DH         LINE#         115
  C:5BA2H         LINE#         116
  C:5BA5H         LINE#         117
  C:5BAAH         LINE#         118
  C:5BADH         LINE#         119
  C:5BB0H         LINE#         120
  C:5BB3H         LINE#         121
  C:5BB6H         LINE#         122
  C:5BB9H         LINE#         123
  C:5BBCH         LINE#         124
  C:5BBFH         LINE#         125
  C:5BC2H         LINE#         126
  C:5BC4H         LINE#         127
  C:5BD4H         LINE#         128
  C:5BD4H         LINE#         129
  C:5BD4H         LINE#         130
  C:5BD7H         LINE#         131
  C:5BDAH         LINE#         132
  C:5BE9H         LINE#         133
  C:5BE9H         LINE#         134
  C:5BF1H         LINE#         135
  C:5C01H         LINE#         136
  C:5C01H         LINE#         138
  C:5C06H         LINE#         139
  C:5C08H         LINE#         141
  C:5C08H         LINE#         143
  C:5C0DH         LINE#         144
  C:5C0DH         LINE#         145
  C:5C0DH         LINE#         146
  -------         ENDPROC       MAIN
  -------         PROC          INT0_IRQ
  C:72B6H         LINE#         148
  C:72BCH         LINE#         151
  C:72C2H         LINE#         154
  C:72C5H         LINE#         156
  C:72C8H         LINE#         158
  -------         ENDPROC       INT0_IRQ
  -------         ENDMOD        MAIN

  -------         MODULE        SYSTEM
  C:0000H         SYMBOL        _ICE_DUMMY_
  D:0080H         PUBLIC        P0
  D:0090H         PUBLIC        P1
BL51 BANKED LINKER/LOCATER V6.22                                                      06/02/2018  10:26:57  PAGE 23


  D:00A0H         PUBLIC        P2
  D:00B0H         PUBLIC        P3
  D:00AAH         PUBLIC        EIE2
  B:00A8H.7       PUBLIC        EA
  C:2506H         PUBLIC        _Get_AD
  X:00F9H         PUBLIC        mHmSetting
  X:00FEH         PUBLIC        mCbParam
  C:687FH         PUBLIC        IO_Init
  D:0095H         PUBLIC        WPKEY
  C:734AH         PUBLIC        INT1_Init
  C:45A9H         PUBLIC        Get_BATT_AD
  D:00C8H         PUBLIC        T2CON1
  C:731AH         PUBLIC        systemCLK_init
  B:00D8H.2       PUBLIC        ADGO
  C:73D0H         PUBLIC        SystemInit
  D:00DAH         PUBLIC        ADRH
  X:012BH         PUBLIC        mSysParam
  D:00D9H         PUBLIC        ADRL
  D:008EH         PUBLIC        BRCON0
  X:0145H         PUBLIC        mSqParam
  X:0153H         PUBLIC        isPowerOn
  D:008FH         PUBLIC        BRTIM0
  B:0080H.0       PUBLIC        P00
  X:0154H         PUBLIC        mSq
  B:00A0H.2       PUBLIC        P22
  B:0080H.4       PUBLIC        P04
  D:0089H         PUBLIC        TMOD
  B:0090H.5       PUBLIC        P15
  X:0156H         PUBLIC        mMessage
  B:00B0H.4       PUBLIC        P34
  B:00B0H.6       PUBLIC        P36
  B:00A0H.7       PUBLIC        P27
  B:00B0H.7       PUBLIC        P37
  B:0088H.3       PUBLIC        IE1
  D:0091H         PUBLIC        MCKDIV
  D:0092H         PUBLIC        MCKSEL
  B:00A8H.1       PUBLIC        ET0
  D:008CH         PUBLIC        TH0
  B:0088H.2       PUBLIC        IT1
  X:015AH         PUBLIC        mRecive
  D:008AH         PUBLIC        TL0
  C:6E66H         PUBLIC        initBEEP
  B:0088H.4       PUBLIC        TR0
  D:00FCH         PUBLIC        P0MDH
  D:00FDH         PUBLIC        P1MDH
  D:00FEH         PUBLIC        P2MDH
  X:015BH         PUBLIC        mDtmfRecive
  D:00FFH         PUBLIC        P3MDH
  D:00ECH         PUBLIC        P0MDL
  X:0160H         PUBLIC        dtmfNum
  D:00EDH         PUBLIC        P1MDL
  D:00EEH         PUBLIC        P2MDL
  C:742FH         PUBLIC        UART0_Init
  D:0098H         PUBLIC        SCON0
  C:7332H         PUBLIC        UART1_Init
  D:00F1H         PUBLIC        SCON1
  D:00D8H         PUBLIC        ADCON
BL51 BANKED LINKER/LOCATER V6.22                                                      06/02/2018  10:26:57  PAGE 24


  D:00C0H         PUBLIC        IIC0CON
  X:0162H         PUBLIC        mFlag
  C:73BBH         PUBLIC        initTimer0
  D:0093H         PUBLIC        CLKEN
  C:710DH         PUBLIC        _delayms
  X:0165H         PUBLIC        isSendDtmf
  D:00ACH         PUBLIC        EINTCS0
  C:74D3H         PUBLIC        _delayus
  -------         PROC          SYSTEMCLK_INIT
  C:731AH         LINE#         24
  C:731AH         LINE#         25
  C:731AH         LINE#         26
  C:731DH         LINE#         27
  C:7320H         LINE#         28
  C:7323H         LINE#         29
  C:7328H         LINE#         30
  C:732BH         LINE#         31
  C:732EH         LINE#         32
  C:7331H         LINE#         33
  -------         ENDPROC       SYSTEMCLK_INIT
  -------         PROC          INITTIMER0
  C:73BBH         LINE#         39
  C:73BBH         LINE#         40
  C:73BBH         LINE#         42
  C:73C2H         LINE#         43
  C:73C5H         LINE#         44
  C:73C8H         LINE#         45
  C:73CBH         LINE#         46
  C:73CDH         LINE#         47
  C:73CFH         LINE#         48
  -------         ENDPROC       INITTIMER0
  -------         PROC          IO_INIT
  C:687FH         LINE#         54
  C:687FH         LINE#         55
  C:687FH         LINE#         56
  C:6882H         LINE#         57
  C:6885H         LINE#         58
  C:6887H         LINE#         59
  C:6889H         LINE#         61
  C:688CH         LINE#         62
  C:688FH         LINE#         63
  C:6892H         LINE#         65
  C:6894H         LINE#         67
  C:6897H         LINE#         68
  C:689AH         LINE#         69
  C:689CH         LINE#         72
  C:689EH         LINE#         75
  C:68A1H         LINE#         76
  C:68A3H         LINE#         77
  C:68A5H         LINE#         78
  C:68A7H         LINE#         79
  C:68ACH         LINE#         80
  C:68B2H         LINE#         83
  C:68B8H         LINE#         84
  -------         ENDPROC       IO_INIT
  -------         PROC          _DELAYMS
  D:0006H         SYMBOL        i
BL51 BANKED LINKER/LOCATER V6.22                                                      06/02/2018  10:26:57  PAGE 25


  -------         DO            
  D:0004H         SYMBOL        m
  D:0002H         SYMBOL        n
  -------         ENDDO         
  C:710DH         LINE#         93
  C:710DH         LINE#         94
  C:710DH         LINE#         97
  C:7117H         LINE#         98
  C:7117H         LINE#         99
  C:7125H         LINE#         100
  C:712CH         LINE#         101
  -------         ENDPROC       _DELAYMS
  -------         PROC          _DELAYUS
  D:0007H         SYMBOL        i
  C:74D3H         LINE#         107
  C:74D3H         LINE#         108
  C:74D3H         LINE#         109
  C:74D5H         LINE#         110
  -------         ENDPROC       _DELAYUS
  -------         PROC          INITBEEP
  C:6E66H         LINE#         116
  C:6E66H         LINE#         117
  C:6E66H         LINE#         137
  C:6E6DH         LINE#         138
  C:6E74H         LINE#         139
  C:6E7BH         LINE#         140
  C:6E81H         LINE#         141
  C:6E85H         LINE#         142
  C:6E88H         LINE#         143
  C:6E8BH         LINE#         144
  -------         ENDPROC       INITBEEP
  -------         PROC          UART0_INIT
  C:742FH         LINE#         150
  C:742FH         LINE#         151
  C:742FH         LINE#         152
  C:7436H         LINE#         153
  C:7439H         LINE#         154
  C:743CH         LINE#         156
  C:743FH         LINE#         159
  -------         ENDPROC       UART0_INIT
  -------         PROC          UART1_INIT
  C:7332H         LINE#         160
  C:7332H         LINE#         161
  C:7332H         LINE#         162
  C:7339H         LINE#         163
  C:733CH         LINE#         165
  C:7342H         LINE#         166
  C:7346H         LINE#         167
  C:7349H         LINE#         168
  -------         ENDPROC       UART1_INIT
  -------         PROC          INT1_INIT
  C:734AH         LINE#         169
  C:734AH         LINE#         170
  C:734AH         LINE#         171
  C:734CH         LINE#         172
  C:7353H         LINE#         173
  C:7355H         LINE#         174
BL51 BANKED LINKER/LOCATER V6.22                                                      06/02/2018  10:26:57  PAGE 26


  C:7358H         LINE#         175
  C:735AH         LINE#         176
  C:735DH         LINE#         177
  C:7360H         LINE#         179
  -------         ENDPROC       INT1_INIT
  -------         PROC          SYSTEMINIT
  C:73D0H         LINE#         180
  C:73D0H         LINE#         181
  C:73D0H         LINE#         182
  C:73D3H         LINE#         183
  C:73D6H         LINE#         184
  C:73D9H         LINE#         185
  C:73DCH         LINE#         187
  C:73DFH         LINE#         188
  C:73E2H         LINE#         190
  -------         ENDPROC       SYSTEMINIT
  -------         PROC          _GET_AD
  D:0007H         SYMBOL        AD_IO
  -------         DO            
  X:021CH         SYMBOL        i
  D:0002H         SYMBOL        j
  X:021EH         SYMBOL        temp
  X:0222H         SYMBOL        val
  -------         ENDDO         
  C:2506H         LINE#         197
  C:2506H         LINE#         198
  C:2506H         LINE#         203
  C:250EH         LINE#         204
  C:250EH         LINE#         205
  C:250EH         LINE#         206
  C:2514H         LINE#         207
  C:2517H         LINE#         208
  C:2519H         LINE#         209
  C:2519H         LINE#         210
  C:251FH         LINE#         211
  C:2522H         LINE#         212
  C:2522H         LINE#         213
  C:2522H         LINE#         214
  C:2522H         LINE#         215
  C:2522H         LINE#         217
  C:2527H         LINE#         218
  C:252EH         LINE#         219
  C:252EH         LINE#         220
  C:2530H         LINE#         221
  C:2533H         LINE#         222
  C:2556H         LINE#         223
  C:2570H         LINE#         224
  C:2577H         LINE#         225
  C:2577H         LINE#         226
  C:2594H         LINE#         227
  C:2594H         LINE#         228
  C:25BEH         LINE#         229
  C:25BEH         LINE#         230
  C:25DDH         LINE#         231
  C:2602H         LINE#         232
  C:2626H         LINE#         233
  C:2626H         LINE#         234
BL51 BANKED LINKER/LOCATER V6.22                                                      06/02/2018  10:26:57  PAGE 27


  C:262EH         LINE#         235
  C:264BH         LINE#         236
  C:2655H         LINE#         237
  C:265EH         LINE#         238
  C:265EH         LINE#         239
  C:269DH         LINE#         240
  C:26B7H         LINE#         241
  C:26D4H         LINE#         242
  C:270BH         LINE#         243
  C:2743H         LINE#         244
  C:277CH         LINE#         245
  C:27B5H         LINE#         246
  C:27EEH         LINE#         247
  C:2827H         LINE#         248
  C:2829H         LINE#         249
  -------         ENDPROC       _GET_AD
  -------         PROC          GET_BATT_AD
  -------         DO            
  D:0002H         SYMBOL        i
  X:024AH         SYMBOL        j
  D:0006H         SYMBOL        reval
  X:024CH         SYMBOL        temp
  X:0250H         SYMBOL        val
  -------         ENDDO         
  C:45A9H         LINE#         255
  C:45A9H         LINE#         256
  C:45A9H         LINE#         260
  C:45AFH         LINE#         261
  C:45B2H         LINE#         262
  C:45B7H         LINE#         263
  C:45BAH         LINE#         264
  C:45BAH         LINE#         265
  C:45BCH         LINE#         266
  C:45BFH         LINE#         267
  C:45DCH         LINE#         268
  C:45E7H         LINE#         269
  C:45EAH         LINE#         270
  C:45EAH         LINE#         271
  C:460AH         LINE#         272
  C:460AH         LINE#         273
  C:4634H         LINE#         274
  C:4634H         LINE#         275
  C:4659H         LINE#         276
  C:4684H         LINE#         277
  C:46AEH         LINE#         278
  C:46AEH         LINE#         279
  C:46BFH         LINE#         280
  C:46CDH         LINE#         281
  C:46D5H         LINE#         282
  C:46D5H         LINE#         283
  -------         ENDPROC       GET_BATT_AD
  -------         ENDMOD        SYSTEM

  -------         MODULE        TM1722
  C:0000H         SYMBOL        _ICE_DUMMY_
  C:5520H         PUBLIC        NUM2_ADD2
  D:0080H         PUBLIC        P0
BL51 BANKED LINKER/LOCATER V6.22                                                      06/02/2018  10:26:57  PAGE 28


  D:0090H         PUBLIC        P1
  C:5535H         PUBLIC        NUM3_ADD3
  D:00A0H         PUBLIC        P2
  D:00B0H         PUBLIC        P3
  X:01BDH         PUBLIC        PS_ADD6
  C:5551H         PUBLIC        NUM4_ADD4
  C:5568H         PUBLIC        NUM4_ADD5
  X:01BEH         PUBLIC        RX_ADD2
  C:557FH         PUBLIC        NUM5_ADD6
  C:5595H         PUBLIC        NUM5_ADD7
  X:01BFH         PUBLIC        LOCK_ADD7
  X:01C0H         PUBLIC        TX_ADD5
  C:6F8CH         PUBLIC        _LCD_EMG
  X:01C1H         PUBLIC        BATT_ADD8
  C:591DH         PUBLIC        TM1722_SHOW
  D:00C8H         PUBLIC        T2CON1
  C:70C7H         PUBLIC        _LCD_ASQ
  C:66CAH         PUBLIC        LCD_CLEAR
  C:3BDBH         PUBLIC        _LCD_STRENGTH
  C:618CH         PUBLIC        _ShowContry
  C:6FD2H         PUBLIC        _LCD_LOW
  B:0080H.5       PUBLIC        P05
  B:0080H.6       PUBLIC        P06
  B:0080H.7       PUBLIC        P07
  C:6844H         PUBLIC        _TM1722_Write_String
  X:01C2H         PUBLIC        EMG_ADD6
  C:705EH         PUBLIC        _LCD_AM
  C:703BH         PUBLIC        _LCD_FM
  X:01C3H         PUBLIC        ASQ_ADD8
  C:6FF5H         PUBLIC        _LCD_DW
  C:6CAEH         PUBLIC        _TM1722_Write_Byte
  X:01C4H         PUBLIC        LOW_ADD8
  C:73E3H         PUBLIC        _LCD_NUM1
  C:7081H         PUBLIC        _LCD_PS
  C:73F6H         PUBLIC        _LCD_NUM2
  C:7409H         PUBLIC        _LCD_NUM3
  C:6ED8H         PUBLIC        _LCD_NUM4
  X:01C5H         PUBLIC        STRENGTH_LEVEL1_ADD1
  C:6FAFH         PUBLIC        _LCD_SCAN
  C:6EFDH         PUBLIC        _LCD_NUM5
  C:6E8CH         PUBLIC        _TM1722_Write_Word
  C:70A4H         PUBLIC        _LCD_LOCK
  C:6F46H         PUBLIC        _LCD_RX
  C:7018H         PUBLIC        _LCD_BATT
  C:6F69H         PUBLIC        _LCD_TX
  X:01C6H         PUBLIC        STRENGTH_LEVEL2_ADD8
  X:01C7H         PUBLIC        STRENGTH_LEVEL3_ADD8
  X:01C8H         PUBLIC        STRENGTH_LEVEL4_ADD8
  D:0098H         PUBLIC        SCON0
  X:01C9H         PUBLIC        STRENGTH_LEVEL5_ADD8
  C:69CDH         PUBLIC        TM1722_Init
  D:00D8H         PUBLIC        ADCON
  D:00C0H         PUBLIC        IIC0CON
  X:01CAH         PUBLIC        AM_ADD4
  X:01CBH         PUBLIC        FM_ADD3
  X:01CCH         PUBLIC        SC_ADD7
  X:01CDH         PUBLIC        SEGDATA
BL51 BANKED LINKER/LOCATER V6.22                                                      06/02/2018  10:26:57  PAGE 29


  X:01D5H         PUBLIC        country_ecode
  X:020DH         PUBLIC        DW_ADD8
  C:550BH         PUBLIC        NUM1_ADD1
  -------         PROC          _TM1722_WRITE_BYTE
  X:0220H         SYMBOL        dat
  -------         DO            
  D:0007H         SYMBOL        i
  -------         ENDDO         
  C:6CAEH         LINE#         97
  C:6CB3H         LINE#         98
  C:6CB3H         LINE#         100
  C:6CB8H         LINE#         101
  C:6CBAH         LINE#         102
  C:6CBCH         LINE#         103
  C:6CBCH         LINE#         104
  C:6CBEH         LINE#         105
  C:6CC6H         LINE#         106
  C:6CC8H         LINE#         107
  C:6CCCH         LINE#         108
  C:6CD1H         LINE#         109
  C:6CD6H         LINE#         110
  -------         ENDPROC       _TM1722_WRITE_BYTE
  -------         PROC          _TM1722_WRITE_WORD
  X:021EH         SYMBOL        adress
  X:021FH         SYMBOL        dat
  C:6E8CH         LINE#         112
  C:6E94H         LINE#         113
  C:6E94H         LINE#         115
  C:6E96H         LINE#         116
  C:6E9BH         LINE#         117
  C:6E9DH         LINE#         118
  C:6EA7H         LINE#         119
  C:6EAFH         LINE#         120
  C:6EB1H         LINE#         121
  -------         ENDPROC       _TM1722_WRITE_WORD
  -------         PROC          _TM1722_WRITE_STRING
  X:028DH         SYMBOL        addr
  X:028EH         SYMBOL        count
  -------         DO            
  X:028FH         SYMBOL        i
  -------         ENDDO         
  C:6844H         LINE#         122
  C:684CH         LINE#         123
  C:684CH         LINE#         125
  C:684EH         LINE#         126
  C:6853H         LINE#         127
  C:6855H         LINE#         128
  C:685FH         LINE#         129
  C:686FH         LINE#         130
  C:686FH         LINE#         131
  C:6874H         LINE#         133
  C:687CH         LINE#         134
  C:687EH         LINE#         135
  -------         ENDPROC       _TM1722_WRITE_STRING
  -------         PROC          TM1722_INIT
  C:69CDH         LINE#         142
  C:69CDH         LINE#         143
BL51 BANKED LINKER/LOCATER V6.22                                                      06/02/2018  10:26:57  PAGE 30


  C:69CDH         LINE#         144
  C:69D2H         LINE#         145
  C:69D4H         LINE#         146
  C:69D6H         LINE#         147
  C:69D8H         LINE#         149
  C:69DDH         LINE#         150
  C:69DFH         LINE#         151
  C:69E4H         LINE#         152
  C:69E6H         LINE#         154
  C:69ECH         LINE#         155
  C:69EEH         LINE#         156
  C:69F0H         LINE#         157
  C:69F2H         LINE#         158
  C:69F4H         LINE#         159
  C:69F8H         LINE#         160
  C:69FCH         LINE#         161
  C:69FEH         LINE#         163
  C:6A01H         LINE#         164
  -------         ENDPROC       TM1722_INIT
  -------         PROC          _LCD_NUM1
  D:0007H         SYMBOL        i
  C:73E3H         LINE#         172
  C:73E3H         LINE#         173
  C:73E3H         LINE#         174
  C:73EBH         LINE#         175
  C:73F5H         LINE#         178
  -------         ENDPROC       _LCD_NUM1
  -------         PROC          _LCD_NUM2
  D:0007H         SYMBOL        i
  C:73F6H         LINE#         185
  C:73F6H         LINE#         186
  C:73F6H         LINE#         187
  C:73FEH         LINE#         188
  C:7408H         LINE#         190
  -------         ENDPROC       _LCD_NUM2
  -------         PROC          _LCD_NUM3
  D:0007H         SYMBOL        i
  C:7409H         LINE#         197
  C:7409H         LINE#         198
  C:7409H         LINE#         199
  C:7411H         LINE#         200
  C:741BH         LINE#         202
  -------         ENDPROC       _LCD_NUM3
  -------         PROC          _LCD_NUM4
  D:0004H         SYMBOL        i
  C:6ED8H         LINE#         209
  C:6EDAH         LINE#         210
  C:6EDAH         LINE#         211
  C:6EE2H         LINE#         212
  C:6EECH         LINE#         214
  C:6EF2H         LINE#         215
  C:6EFCH         LINE#         217
  -------         ENDPROC       _LCD_NUM4
  -------         PROC          _LCD_NUM5
  D:0004H         SYMBOL        i
  C:6EFDH         LINE#         225
  C:6EFFH         LINE#         226
BL51 BANKED LINKER/LOCATER V6.22                                                      06/02/2018  10:26:57  PAGE 31


  C:6EFFH         LINE#         227
  C:6F07H         LINE#         228
  C:6F11H         LINE#         230
  C:6F17H         LINE#         231
  C:6F21H         LINE#         233
  -------         ENDPROC       _LCD_NUM5
  -------         PROC          _LCD_RX
  D:0007H         SYMBOL        i
  C:6F46H         LINE#         240
  C:6F46H         LINE#         241
  C:6F46H         LINE#         242
  C:6F68H         LINE#         244
  -------         ENDPROC       _LCD_RX
  -------         PROC          _LCD_TX
  D:0007H         SYMBOL        i
  C:6F69H         LINE#         251
  C:6F69H         LINE#         252
  C:6F69H         LINE#         253
  C:6F8BH         LINE#         255
  -------         ENDPROC       _LCD_TX
  -------         PROC          _LCD_EMG
  D:0007H         SYMBOL        i
  C:6F8CH         LINE#         263
  C:6F8CH         LINE#         264
  C:6F8CH         LINE#         265
  C:6FAEH         LINE#         267
  -------         ENDPROC       _LCD_EMG
  -------         PROC          _LCD_SCAN
  D:0007H         SYMBOL        i
  C:6FAFH         LINE#         273
  C:6FAFH         LINE#         274
  C:6FAFH         LINE#         275
  C:6FD1H         LINE#         277
  -------         ENDPROC       _LCD_SCAN
  -------         PROC          _LCD_LOW
  D:0007H         SYMBOL        i
  C:6FD2H         LINE#         284
  C:6FD2H         LINE#         285
  C:6FD2H         LINE#         286
  C:6FF4H         LINE#         288
  -------         ENDPROC       _LCD_LOW
  -------         PROC          _LCD_DW
  D:0007H         SYMBOL        i
  C:6FF5H         LINE#         295
  C:6FF5H         LINE#         296
  C:6FF5H         LINE#         297
  C:7017H         LINE#         299
  -------         ENDPROC       _LCD_DW
  -------         PROC          _LCD_BATT
  D:0007H         SYMBOL        i
  C:7018H         LINE#         305
  C:7018H         LINE#         306
  C:7018H         LINE#         307
  C:703AH         LINE#         308
  -------         ENDPROC       _LCD_BATT
  -------         PROC          _LCD_FM
  D:0007H         SYMBOL        i
BL51 BANKED LINKER/LOCATER V6.22                                                      06/02/2018  10:26:57  PAGE 32


  C:703BH         LINE#         315
  C:703BH         LINE#         316
  C:703BH         LINE#         317
  C:705DH         LINE#         319
  -------         ENDPROC       _LCD_FM
  -------         PROC          _LCD_AM
  D:0007H         SYMBOL        i
  C:705EH         LINE#         326
  C:705EH         LINE#         327
  C:705EH         LINE#         328
  C:7080H         LINE#         330
  -------         ENDPROC       _LCD_AM
  -------         PROC          _LCD_PS
  D:0007H         SYMBOL        i
  C:7081H         LINE#         337
  C:7081H         LINE#         338
  C:7081H         LINE#         339
  C:70A3H         LINE#         341
  -------         ENDPROC       _LCD_PS
  -------         PROC          _LCD_LOCK
  D:0007H         SYMBOL        i
  C:70A4H         LINE#         344
  C:70A4H         LINE#         345
  C:70A4H         LINE#         346
  C:70C6H         LINE#         348
  -------         ENDPROC       _LCD_LOCK
  -------         PROC          _LCD_ASQ
  D:0007H         SYMBOL        i
  C:70C7H         LINE#         354
  C:70C7H         LINE#         355
  C:70C7H         LINE#         356
  C:70E9H         LINE#         358
  -------         ENDPROC       _LCD_ASQ
  -------         PROC          _LCD_STRENGTH
  D:0007H         SYMBOL        i
  C:3BDBH         LINE#         365
  C:3BDBH         LINE#         366
  C:3BDBH         LINE#         367
  C:3BFEH         LINE#         368
  C:3BFEH         LINE#         369
  C:3BFEH         LINE#         370
  C:3C0AH         LINE#         371
  C:3C17H         LINE#         372
  C:3C22H         LINE#         373
  C:3C2DH         LINE#         374
  C:3C37H         LINE#         375
  C:3C38H         LINE#         376
  C:3C38H         LINE#         377
  C:3C48H         LINE#         378
  C:3C55H         LINE#         379
  C:3C60H         LINE#         380
  C:3C6BH         LINE#         381
  C:3C75H         LINE#         382
  C:3C76H         LINE#         383
  C:3C76H         LINE#         384
  C:3C86H         LINE#         385
  C:3C97H         LINE#         386
BL51 BANKED LINKER/LOCATER V6.22                                                      06/02/2018  10:26:57  PAGE 33


  C:3CA2H         LINE#         387
  C:3CADH         LINE#         388
  C:3CB7H         LINE#         389
  C:3CB8H         LINE#         390
  C:3CB8H         LINE#         391
  C:3CC8H         LINE#         392
  C:3CD9H         LINE#         393
  C:3CE3H         LINE#         394
  C:3CEEH         LINE#         395
  C:3CF8H         LINE#         396
  C:3CF9H         LINE#         397
  C:3CF9H         LINE#         398
  C:3D09H         LINE#         399
  C:3D1AH         LINE#         400
  C:3D24H         LINE#         401
  C:3D2EH         LINE#         402
  C:3D38H         LINE#         403
  C:3D39H         LINE#         404
  C:3D39H         LINE#         405
  C:3D49H         LINE#         406
  C:3D5AH         LINE#         407
  C:3D64H         LINE#         408
  C:3D6EH         LINE#         409
  C:3D77H         LINE#         410
  C:3D77H         LINE#         411
  C:3D77H         LINE#         413
  -------         ENDPROC       _LCD_STRENGTH
  -------         PROC          LCD_CLEAR
  -------         DO            
  D:0007H         SYMBOL        i
  -------         ENDDO         
  C:66CAH         LINE#         415
  C:66CAH         LINE#         416
  C:66CAH         LINE#         418
  C:66CCH         LINE#         419
  C:66CCH         LINE#         420
  C:66E9H         LINE#         421
  C:66E9H         LINE#         422
  C:66F6H         LINE#         423
  C:66F8H         LINE#         425
  C:66F8H         LINE#         426
  C:6704H         LINE#         427
  C:6704H         LINE#         428
  C:6709H         LINE#         430
  -------         ENDPROC       LCD_CLEAR
  -------         PROC          _SHOWCONTRY
  D:0007H         SYMBOL        i
  C:618CH         LINE#         432
  C:618CH         LINE#         433
  C:618CH         LINE#         434
  C:619FH         LINE#         435
  C:61B2H         LINE#         436
  C:61C5H         LINE#         437
  C:61D8H         LINE#         438
  C:61DBH         LINE#         439
  -------         ENDPROC       _SHOWCONTRY
  -------         PROC          TM1722_SHOW
BL51 BANKED LINKER/LOCATER V6.22                                                      06/02/2018  10:26:57  PAGE 34


  C:591DH         LINE#         448
  C:591DH         LINE#         449
  C:591DH         LINE#         450
  C:5927H         LINE#         451
  C:592EH         LINE#         453
  C:5938H         LINE#         454
  C:593FH         LINE#         456
  C:5949H         LINE#         457
  C:5950H         LINE#         459
  C:595AH         LINE#         460
  C:5961H         LINE#         462
  C:596BH         LINE#         463
  C:5972H         LINE#         465
  C:597CH         LINE#         466
  C:5983H         LINE#         468
  C:598DH         LINE#         469
  C:5994H         LINE#         471
  C:599EH         LINE#         472
  C:59A5H         LINE#         473
  -------         ENDPROC       TM1722_SHOW
  -------         ENDMOD        TM1722

  -------         MODULE        KEYS
  C:0000H         SYMBOL        _ICE_DUMMY_
  D:0080H         PUBLIC        P0
  D:0090H         PUBLIC        P1
  D:00A0H         PUBLIC        P2
  D:00B0H         PUBLIC        P3
  C:56E3H         PUBLIC        PWR_MUTE_PRESS
  C:3D78H         PUBLIC        IS_KEY1_PRESS
  C:3846H         PUBLIC        IS_KEY2_PRESS
  X:0236H         PUBLIC        scandwPPTPress
  X:0237H         PUBLIC        oldkey
  X:0238H         PUBLIC        mKey
  X:0244H         PUBLIC        inDexMute
  D:00C8H         PUBLIC        T2CON1
  X:0245H         PUBLIC        PPTpress
  X:0246H         PUBLIC        inDex1
  X:0247H         PUBLIC        inDex2
  B:00A0H.4       PUBLIC        P24
  X:0248H         PUBLIC        LONG_UPDN_PRESS
  C:65C6H         PUBLIC        InitKey
  C:4D41H         PUBLIC        Check_Scan
  C:4349H         PUBLIC        Check_DW
  X:0249H         PUBLIC        keydelay
  C:6B55H         PUBLIC        PPT_PRESS
  D:0098H         PUBLIC        SCON0
  D:00D8H         PUBLIC        ADCON
  D:00C0H         PUBLIC        IIC0CON
  C:5777H         PUBLIC        _Check_Key
  -------         PROC          CHECK_SCAN
  C:4D41H         LINE#         37
  C:4D41H         LINE#         38
  C:4D41H         LINE#         39
  C:4D4CH         LINE#         40
  C:4D4CH         LINE#         42
  C:4D4CH         LINE#         43
BL51 BANKED LINKER/LOCATER V6.22                                                      06/02/2018  10:26:57  PAGE 35


  C:4D57H         LINE#         44
  C:4D63H         LINE#         45
  C:4D69H         LINE#         46
  C:4D69H         LINE#         47
  C:4D70H         LINE#         48
  C:4D70H         LINE#         49
  C:4D76H         LINE#         50
  C:4D7BH         LINE#         51
  C:4D7DH         LINE#         53
  C:4D7DH         LINE#         54
  C:4D8AH         LINE#         55
  C:4D8AH         LINE#         56
  C:4D90H         LINE#         57
  C:4D92H         LINE#         59
  C:4D92H         LINE#         60
  C:4D98H         LINE#         61
  C:4D98H         LINE#         62
  C:4D98H         LINE#         63
  C:4D9AH         LINE#         65
  C:4D9AH         LINE#         66
  C:4DA1H         LINE#         67
  C:4DA1H         LINE#         68
  C:4DA7H         LINE#         69
  C:4DACH         LINE#         70
  C:4DAEH         LINE#         72
  C:4DAEH         LINE#         73
  C:4DBBH         LINE#         74
  C:4DBBH         LINE#         75
  C:4DC1H         LINE#         76
  C:4DC3H         LINE#         78
  C:4DC3H         LINE#         79
  C:4DC9H         LINE#         80
  C:4DC9H         LINE#         81
  C:4DC9H         LINE#         82
  C:4DC9H         LINE#         84
  C:4DD0H         LINE#         85
  C:4DD0H         LINE#         86
  C:4DDFH         LINE#         87
  C:4DDFH         LINE#         88
  C:4DEBH         LINE#         89
  C:4DEBH         LINE#         91
  C:4DF5H         LINE#         92
  C:4DF5H         LINE#         93
  C:4DFAH         LINE#         94
  C:4DFAH         LINE#         95
  C:4DFCH         LINE#         97
  C:4DFCH         LINE#         98
  C:4E01H         LINE#         99
  C:4E09H         LINE#         100
  C:4E09H         LINE#         102
  C:4E10H         LINE#         103
  C:4E10H         LINE#         104
  C:4E16H         LINE#         105
  C:4E16H         LINE#         106
  C:4E19H         LINE#         109
  C:4E1BH         LINE#         111
  C:4E1BH         LINE#         112
BL51 BANKED LINKER/LOCATER V6.22                                                      06/02/2018  10:26:57  PAGE 36


  C:4E1EH         LINE#         114
  C:4E1EH         LINE#         115
  C:4E1EH         LINE#         116
  C:4E24H         LINE#         118
  -------         ENDPROC       CHECK_SCAN
  -------         PROC          CHECK_DW
  -------         DO            
  X:0217H         SYMBOL        oldchannel
  X:0218H         SYMBOL        oldband
  -------         ENDDO         
  C:4349H         LINE#         124
  C:4349H         LINE#         125
  C:4349H         LINE#         126
  C:4351H         LINE#         127
  C:4359H         LINE#         128
  C:4365H         LINE#         129
  C:4370H         LINE#         130
  C:4370H         LINE#         131
  C:437BH         LINE#         132
  C:4382H         LINE#         133
  C:4382H         LINE#         134
  C:4388H         LINE#         135
  C:438DH         LINE#         136
  C:438FH         LINE#         138
  C:438FH         LINE#         139
  C:4395H         LINE#         140
  C:4395H         LINE#         141
  C:43A2H         LINE#         142
  C:43A2H         LINE#         143
  C:43A8H         LINE#         144
  C:43AAH         LINE#         146
  C:43AAH         LINE#         147
  C:43B0H         LINE#         148
  C:43B0H         LINE#         149
  C:43B2H         LINE#         151
  C:43B2H         LINE#         152
  C:43BFH         LINE#         153
  C:43BFH         LINE#         154
  C:43C5H         LINE#         155
  C:43C7H         LINE#         157
  C:43C7H         LINE#         158
  C:43CDH         LINE#         159
  C:43CDH         LINE#         160
  C:43CDH         LINE#         161
  C:43CDH         LINE#         162
  C:43D4H         LINE#         163
  C:43D4H         LINE#         164
  C:43E3H         LINE#         165
  C:43E3H         LINE#         166
  C:43EFH         LINE#         167
  C:43EFH         LINE#         169
  C:43F9H         LINE#         170
  C:43F9H         LINE#         171
  C:43FEH         LINE#         172
  C:43FEH         LINE#         173
  C:4400H         LINE#         175
  C:4400H         LINE#         176
BL51 BANKED LINKER/LOCATER V6.22                                                      06/02/2018  10:26:57  PAGE 37


  C:4405H         LINE#         177
  C:440DH         LINE#         178
  C:440DH         LINE#         180
  C:4415H         LINE#         181
  C:4415H         LINE#         182
  C:4421H         LINE#         183
  C:4421H         LINE#         184
  C:4429H         LINE#         185
  C:4431H         LINE#         186
  C:4439H         LINE#         187
  C:443BH         LINE#         189
  C:443BH         LINE#         190
  C:4440H         LINE#         191
  C:4448H         LINE#         192
  C:4450H         LINE#         193
  C:4450H         LINE#         194
  C:4453H         LINE#         195
  C:445BH         LINE#         196
  C:445BH         LINE#         197
  C:445EH         LINE#         200
  C:4461H         LINE#         201
  C:4463H         LINE#         203
  C:4463H         LINE#         204
  C:446BH         LINE#         205
  C:4473H         LINE#         206
  C:4473H         LINE#         207
  C:4473H         LINE#         208
  C:4473H         LINE#         209
  C:4479H         LINE#         210
  -------         ENDPROC       CHECK_DW
  -------         PROC          _CHECK_KEY
  X:0218H         SYMBOL        key
  -------         DO            
  X:0219H         SYMBOL        vae
  D:0007H         SYMBOL        vae1
  X:021AH         SYMBOL        vae2
  X:021BH         SYMBOL        vae3
  -------         ENDDO         
  C:5777H         LINE#         211
  C:577CH         LINE#         212
  C:577CH         LINE#         214
  C:5780H         LINE#         215
  C:5783H         LINE#         216
  C:5787H         LINE#         217
  C:5787H         LINE#         218
  C:578EH         LINE#         219
  C:579BH         LINE#         220
  C:57A2H         LINE#         221
  C:57AFH         LINE#         222
  C:57B6H         LINE#         223
  C:57B6H         LINE#         224
  C:57BCH         LINE#         225
  C:57C2H         LINE#         226
  C:57C4H         LINE#         228
  C:57C4H         LINE#         229
  C:57CBH         LINE#         230
  C:57D8H         LINE#         231
BL51 BANKED LINKER/LOCATER V6.22                                                      06/02/2018  10:26:57  PAGE 38


  C:57DFH         LINE#         232
  C:57ECH         LINE#         233
  C:57F3H         LINE#         234
  C:57F3H         LINE#         235
  C:57F9H         LINE#         236
  C:57FFH         LINE#         237
  C:57FFH         LINE#         238
  C:57FFH         LINE#         239
  C:57FFH         LINE#         240
  C:5804H         LINE#         241
  -------         ENDPROC       _CHECK_KEY
  -------         PROC          IS_KEY1_PRESS
  -------         DO            
  D:0007H         SYMBOL        vae
  -------         ENDDO         
  C:3D78H         LINE#         247
  C:3D78H         LINE#         248
  C:3D78H         LINE#         249
  C:3D7DH         LINE#         250
  C:3D9EH         LINE#         251
  C:3D9EH         LINE#         252
  C:3D9EH         LINE#         253
  C:3DA3H         LINE#         254
  C:3DA4H         LINE#         255
  C:3DA4H         LINE#         256
  C:3DAAH         LINE#         257
  C:3DB9H         LINE#         258
  C:3DBAH         LINE#         259
  C:3DBAH         LINE#         260
  C:3DC0H         LINE#         261
  C:3DCCH         LINE#         262
  C:3DD3H         LINE#         263
  C:3DD3H         LINE#         264
  C:3DD8H         LINE#         265
  C:3DD8H         LINE#         266
  C:3DE7H         LINE#         267
  C:3DE8H         LINE#         268
  C:3DE8H         LINE#         269
  C:3DEEH         LINE#         270
  C:3DFAH         LINE#         271
  C:3E01H         LINE#         272
  C:3E01H         LINE#         273
  C:3E06H         LINE#         274
  C:3E06H         LINE#         275
  C:3E15H         LINE#         276
  C:3E16H         LINE#         277
  C:3E16H         LINE#         278
  C:3E1CH         LINE#         279
  C:3E28H         LINE#         280
  C:3E31H         LINE#         281
  C:3E31H         LINE#         282
  C:3E36H         LINE#         283
  C:3E45H         LINE#         284
  C:3E45H         LINE#         285
  C:3E46H         LINE#         286
  C:3E46H         LINE#         287
  C:3E4CH         LINE#         288
BL51 BANKED LINKER/LOCATER V6.22                                                      06/02/2018  10:26:57  PAGE 39


  C:3E58H         LINE#         289
  C:3E64H         LINE#         290
  C:3E6DH         LINE#         291
  C:3E6DH         LINE#         292
  C:3E72H         LINE#         293
  C:3E78H         LINE#         294
  C:3E78H         LINE#         295
  C:3E79H         LINE#         296
  C:3E79H         LINE#         297
  C:3E88H         LINE#         298
  C:3E88H         LINE#         299
  C:3E9DH         LINE#         300
  C:3E9DH         LINE#         301
  C:3E9DH         LINE#         303
  C:3E9DH         LINE#         304
  C:3E9DH         LINE#         305
  C:3EA2H         LINE#         306
  C:3EA4H         LINE#         307
  C:3EA4H         LINE#         308
  C:3EADH         LINE#         309
  C:3EADH         LINE#         310
  C:3EAFH         LINE#         311
  C:3EB4H         LINE#         312
  C:3EB4H         LINE#         313
  C:3EB9H         LINE#         314
  C:3EBBH         LINE#         315
  C:3EBBH         LINE#         316
  C:3EC4H         LINE#         317
  C:3EC4H         LINE#         318
  C:3EC6H         LINE#         319
  C:3ECBH         LINE#         320
  C:3ECBH         LINE#         321
  C:3ED0H         LINE#         322
  C:3ED2H         LINE#         323
  C:3ED2H         LINE#         324
  C:3ED7H         LINE#         325
  C:3ED9H         LINE#         326
  C:3ED9H         LINE#         327
  C:3EDEH         LINE#         328
  C:3EE0H         LINE#         329
  C:3EE0H         LINE#         330
  C:3EE0H         LINE#         331
  C:3EE0H         LINE#         332
  C:3EE2H         LINE#         333
  C:3EE8H         LINE#         334
  C:3EE8H         LINE#         335
  C:3EEFH         LINE#         336
  C:3EEFH         LINE#         337
  C:3EEFH         LINE#         338
  C:3EEFH         LINE#         339
  C:3EEFH         LINE#         341
  C:3EEFH         LINE#         342
  C:3EEFH         LINE#         344
  C:3EEFH         LINE#         345
  C:3EEFH         LINE#         347
  C:3EEFH         LINE#         348
  C:3EEFH         LINE#         350
BL51 BANKED LINKER/LOCATER V6.22                                                      06/02/2018  10:26:57  PAGE 40


  C:3EEFH         LINE#         351
  C:3EEFH         LINE#         353
  C:3EEFH         LINE#         354
  C:3EEFH         LINE#         355
  C:3EEFH         LINE#         356
  C:3EEFH         LINE#         357
  C:3EEFH         LINE#         358
  C:3EF5H         LINE#         359
  C:3EFAH         LINE#         360
  C:3F00H         LINE#         361
  C:3F00H         LINE#         362
  C:3F00H         LINE#         363
  -------         ENDPROC       IS_KEY1_PRESS
  -------         PROC          IS_KEY2_PRESS
  -------         DO            
  X:0217H         SYMBOL        keyvalee
  -------         ENDDO         
  C:3846H         LINE#         370
  C:3846H         LINE#         371
  C:3846H         LINE#         372
  C:3850H         LINE#         375
  C:3859H         LINE#         376
  C:3859H         LINE#         377
  C:385CH         LINE#         378
  C:385CH         LINE#         379
  C:3862H         LINE#         380
  C:3862H         LINE#         381
  C:3866H         LINE#         382
  C:3866H         LINE#         384
  C:38A3H         LINE#         385
  C:38A3H         LINE#         387
  C:38B1H         LINE#         388
  C:38B8H         LINE#         389
  C:38B8H         LINE#         390
  C:38C4H         LINE#         391
  C:38C4H         LINE#         392
  C:38CCH         LINE#         393
  C:38D3H         LINE#         394
  C:38D6H         LINE#         395
  C:38D9H         LINE#         396
  C:38DCH         LINE#         397
  C:38DEH         LINE#         398
  C:38E5H         LINE#         399
  C:38E5H         LINE#         400
  C:38EDH         LINE#         401
  C:38F4H         LINE#         402
  C:38F7H         LINE#         403
  C:38FCH         LINE#         404
  C:38FFH         LINE#         405
  C:3902H         LINE#         406
  C:3902H         LINE#         407
  C:390CH         LINE#         408
  C:390CH         LINE#         409
  C:390CH         LINE#         410
  C:3913H         LINE#         411
  C:3913H         LINE#         412
  C:3919H         LINE#         413
BL51 BANKED LINKER/LOCATER V6.22                                                      06/02/2018  10:26:57  PAGE 41


  C:391CH         LINE#         414
  C:391CH         LINE#         415
  C:3922H         LINE#         416
  C:3928H         LINE#         417
  C:392EH         LINE#         418
  C:3934H         LINE#         419
  C:393AH         LINE#         420
  C:3940H         LINE#         421
  C:3940H         LINE#         422
  C:3940H         LINE#         423
  C:3958H         LINE#         424
  C:3958H         LINE#         426
  C:3958H         LINE#         427
  C:395EH         LINE#         428
  C:396DH         LINE#         429
  C:396EH         LINE#         430
  C:396EH         LINE#         431
  C:3974H         LINE#         433
  C:3980H         LINE#         434
  C:3989H         LINE#         435
  C:3989H         LINE#         436
  C:398EH         LINE#         437
  C:398EH         LINE#         438
  C:398FH         LINE#         439
  C:398FH         LINE#         440
  C:3994H         LINE#         441
  C:39A0H         LINE#         442
  C:39A1H         LINE#         443
  C:39A1H         LINE#         444
  C:39A7H         LINE#         446
  C:39ACH         LINE#         447
  C:39ADH         LINE#         448
  C:39ADH         LINE#         449
  C:39B3H         LINE#         451
  C:39B8H         LINE#         453
  C:39C4H         LINE#         454
  C:39C5H         LINE#         455
  C:39C5H         LINE#         456
  C:39D4H         LINE#         457
  C:39D4H         LINE#         458
  C:39E0H         LINE#         459
  C:39E0H         LINE#         460
  C:39E0H         LINE#         461
  C:39E5H         LINE#         462
  C:39E7H         LINE#         463
  C:39E7H         LINE#         464
  C:39ECH         LINE#         465
  C:39F2H         LINE#         466
  C:39F2H         LINE#         467
  C:39F2H         LINE#         469
  C:39F2H         LINE#         470
  C:39F2H         LINE#         472
  C:39F2H         LINE#         473
  C:39F2H         LINE#         474
  C:39F2H         LINE#         475
  C:39F2H         LINE#         476
  C:39F2H         LINE#         477
BL51 BANKED LINKER/LOCATER V6.22                                                      06/02/2018  10:26:57  PAGE 42


  C:39F2H         LINE#         478
  C:39F8H         LINE#         479
  C:39FAH         LINE#         480
  C:3A00H         LINE#         481
  C:3A00H         LINE#         482
  C:3A08H         LINE#         483
  C:3A08H         LINE#         484
  C:3A08H         LINE#         486
  C:3A08H         LINE#         487
  C:3A08H         LINE#         488
  C:3A0DH         LINE#         489
  C:3A0DH         LINE#         490
  C:3A0DH         LINE#         492
  C:3A0DH         LINE#         493
  C:3A0DH         LINE#         495
  C:3A0DH         LINE#         496
  C:3A0DH         LINE#         498
  C:3A0DH         LINE#         499
  C:3A0DH         LINE#         500
  C:3A0DH         LINE#         501
  C:3A0DH         LINE#         506
  C:3A0DH         LINE#         507
  C:3A13H         LINE#         508
  C:3A18H         LINE#         509
  C:3A18H         LINE#         510
  C:3A18H         LINE#         511
  -------         ENDPROC       IS_KEY2_PRESS
  -------         PROC          PPT_PRESS
  -------         DO            
  X:0217H         SYMBOL        i
  -------         ENDDO         
  C:6B55H         LINE#         517
  C:6B55H         LINE#         518
  C:6B55H         LINE#         519
  C:6B5CH         LINE#         520
  C:6B5FH         LINE#         521
  C:6B5FH         LINE#         522
  C:6B65H         LINE#         523
  C:6B6BH         LINE#         524
  C:6B70H         LINE#         542
  C:6B71H         LINE#         544
  C:6B71H         LINE#         546
  C:6B78H         LINE#         547
  C:6B78H         LINE#         548
  C:6B7DH         LINE#         550
  C:6B82H         LINE#         552
  C:6B82H         LINE#         553
  C:6B82H         LINE#         554
  -------         ENDPROC       PPT_PRESS
  -------         PROC          PWR_MUTE_PRESS
  C:56E3H         LINE#         560
  C:56E3H         LINE#         561
  C:56E3H         LINE#         562
  C:56ECH         LINE#         563
  C:56ECH         LINE#         564
  C:56EFH         LINE#         565
  C:56F1H         LINE#         567
BL51 BANKED LINKER/LOCATER V6.22                                                      06/02/2018  10:26:57  PAGE 43


  C:56F1H         LINE#         568
  C:56F6H         LINE#         569
  C:56F6H         LINE#         570
  C:5706H         LINE#         571
  C:5706H         LINE#         572
  C:570CH         LINE#         573
  C:5712H         LINE#         574
  C:571BH         LINE#         575
  C:571BH         LINE#         576
  C:571EH         LINE#         577
  C:571EH         LINE#         578
  C:5724H         LINE#         579
  C:5724H         LINE#         580
  C:5729H         LINE#         581
  C:572FH         LINE#         582
  C:5734H         LINE#         583
  C:5734H         LINE#         585
  C:5735H         LINE#         587
  C:5735H         LINE#         588
  C:573DH         LINE#         589
  C:573DH         LINE#         590
  C:5745H         LINE#         591
  C:5745H         LINE#         592
  C:5748H         LINE#         593
  C:574FH         LINE#         594
  C:574FH         LINE#         595
  C:5751H         LINE#         596
  C:5757H         LINE#         597
  C:5759H         LINE#         598
  C:575DH         LINE#         599
  C:575DH         LINE#         600
  C:5762H         LINE#         601
  C:5767H         LINE#         602
  C:576BH         LINE#         603
  C:576BH         LINE#         604
  C:5770H         LINE#         605
  C:5770H         LINE#         606
  C:5770H         LINE#         607
  C:5776H         LINE#         608
  C:5776H         LINE#         610
  -------         ENDPROC       PWR_MUTE_PRESS
  -------         PROC          INITKEY
  C:65C6H         LINE#         617
  C:65C6H         LINE#         618
  C:65C6H         LINE#         619
  C:65CBH         LINE#         620
  C:65CDH         LINE#         621
  C:65D1H         LINE#         622
  C:65D3H         LINE#         623
  C:65D7H         LINE#         624
  C:65DBH         LINE#         625
  C:65DEH         LINE#         626
  C:65E0H         LINE#         628
  C:65E4H         LINE#         629
  C:65EAH         LINE#         630
  C:65EDH         LINE#         631
  C:65F3H         LINE#         632
BL51 BANKED LINKER/LOCATER V6.22                                                      06/02/2018  10:26:57  PAGE 44


  C:65FDH         LINE#         634
  C:6603H         LINE#         635
  C:6606H         LINE#         636
  -------         ENDPROC       INITKEY
  -------         ENDMOD        KEYS

  -------         MODULE        KB4815
  C:0000H         SYMBOL        _ICE_DUMMY_
  D:0080H         PUBLIC        P0
  D:0090H         PUBLIC        P1
  D:00A0H         PUBLIC        P2
  C:718DH         PUBLIC        initReg01_19
  D:00B0H         PUBLIC        P3
  X:0000H         PUBLIC        g_reg0_15_buff
  C:7227H         PUBLIC        BK_DTMF_RX_Read
  C:300EH         PUBLIC        EnterBK4815RX
  C:6584H         PUBLIC        isDtmfSendOK
  C:1A54H         PUBLIC        initBK4815
  D:00C8H         PUBLIC        T2CON1
  X:0020H         PUBLIC        ramp_table
  X:00A0H         PUBLIC        rexci
  X:00B4H         PUBLIC        recivecode
  C:282AH         PUBLIC        StartBK4815TX
  C:5E54H         PUBLIC        _BK_DTMF_TX
  B:0080H.0       PUBLIC        P00
  B:00A0H.2       PUBLIC        P22
  B:0090H.3       PUBLIC        P13
  B:00A0H.4       PUBLIC        P24
  B:00B0H.4       PUBLIC        P34
  B:0090H.7       PUBLIC        P17
  B:00B0H.6       PUBLIC        P36
  B:00A0H.7       PUBLIC        P27
  X:00B5H         PUBLIC        reg0_19
  B:00B0H.7       PUBLIC        P37
  C:6278H         PUBLIC        BK_DTMF_RECIVE
  C:7209H         PUBLIC        BK_Ramp_Table_Init
  C:678AH         PUBLIC        BK_DTMF_INTERUPT_CLEAR
  C:5A06H         PUBLIC        SendDtmfHighArr
  C:72E8H         PUBLIC        BK_Disable_TX_InbandSignal
  C:59C6H         PUBLIC        RecvDtmfHighArr
  B:00A8H.2       PUBLIC        EX1
  C:746FH         PUBLIC        BK4815RssiAndSnr
  C:72CFH         PUBLIC        BK_Enable_TX_InbandSignal
  X:00DBH         PUBLIC        channel
  C:7440H         PUBLIC        BK4815Sleep
  D:00FFH         PUBLIC        P3MDH
  D:0098H         PUBLIC        SCON0
  D:00D8H         PUBLIC        ADCON
  D:00C0H         PUBLIC        IIC0CON
  X:00F8H         PUBLIC        reccount
  C:5FDAH         PUBLIC        _BK_Read_Reg
  C:59E6H         PUBLIC        SendDtmfLowArr
  C:6A97H         PUBLIC        BK_RX2TX
  C:6EB2H         PUBLIC        BK_TX2RX
  C:670AH         PUBLIC        _BK_Write_Reg
  C:59A6H         PUBLIC        RecvDtmfLowArr
  -------         PROC          _BK_READ_REG
BL51 BANKED LINKER/LOCATER V6.22                                                      06/02/2018  10:26:57  PAGE 45


  D:0007H         SYMBOL        reg
  -------         DO            
  D:0005H         SYMBOL        i
  X:0228H         SYMBOL        dat
  -------         ENDDO         
  C:5FDAH         LINE#         58
  C:5FDAH         LINE#         59
  C:5FDAH         LINE#         62
  C:5FDEH         LINE#         63
  C:5FE1H         LINE#         64
  C:5FE3H         LINE#         65
  C:5FE5H         LINE#         66
  C:5FE7H         LINE#         67
  C:5FE7H         LINE#         68
  C:5FEFH         LINE#         69
  C:5FF1H         LINE#         70
  C:5FF3H         LINE#         71
  C:5FF5H         LINE#         72
  C:5FF9H         LINE#         73
  C:5FFEH         LINE#         74
  C:6004H         LINE#         75
  C:6006H         LINE#         76
  C:6006H         LINE#         77
  C:6013H         LINE#         78
  C:601EH         LINE#         79
  C:6020H         LINE#         80
  C:6022H         LINE#         81
  C:6027H         LINE#         83
  C:6029H         LINE#         84
  C:602FH         LINE#         85
  C:6037H         LINE#         86
  -------         ENDPROC       _BK_READ_REG
  -------         PROC          _BK_WRITE_REG
  D:0007H         SYMBOL        reg
  D:0004H         SYMBOL        dat
  -------         DO            
  D:0003H         SYMBOL        i
  -------         ENDDO         
  C:670AH         LINE#         92
  C:670AH         LINE#         93
  C:670AH         LINE#         95
  C:670EH         LINE#         97
  C:6710H         LINE#         98
  C:6712H         LINE#         100
  C:6714H         LINE#         101
  C:6714H         LINE#         102
  C:671CH         LINE#         103
  C:671EH         LINE#         104
  C:6720H         LINE#         105
  C:6722H         LINE#         106
  C:6726H         LINE#         107
  C:672BH         LINE#         108
  C:672DH         LINE#         109
  C:672DH         LINE#         110
  C:6735H         LINE#         111
  C:6737H         LINE#         112
  C:6739H         LINE#         113
BL51 BANKED LINKER/LOCATER V6.22                                                      06/02/2018  10:26:57  PAGE 46


  C:673BH         LINE#         114
  C:6742H         LINE#         115
  C:6747H         LINE#         116
  C:6749H         LINE#         117
  -------         ENDPROC       _BK_WRITE_REG
  -------         PROC          BK_RAMP_TABLE_INIT
  -------         DO            
  D:0006H         SYMBOL        i
  -------         ENDDO         
  C:7209H         LINE#         118
  C:7209H         LINE#         119
  C:7209H         LINE#         121
  C:720BH         LINE#         122
  C:7226H         LINE#         123
  -------         ENDPROC       BK_RAMP_TABLE_INIT
  -------         PROC          INITREG01_19
  -------         DO            
  D:0006H         SYMBOL        i
  -------         ENDDO         
  C:718DH         LINE#         124
  C:718DH         LINE#         125
  C:718DH         LINE#         127
  C:718FH         LINE#         128
  C:718FH         LINE#         129
  C:71A6H         LINE#         130
  C:71ABH         LINE#         131
  -------         ENDPROC       INITREG01_19
  -------         PROC          INITBK4815
  -------         DO            
  D:0002H         SYMBOL        i
  X:0217H         SYMBOL        val
  -------         ENDDO         
  C:1A54H         LINE#         137
  C:1A54H         LINE#         138
  C:1A54H         LINE#         140
  C:1A5BH         LINE#         141
  C:1A5DH         LINE#         142
  C:1A62H         LINE#         143
  C:1A64H         LINE#         144
  C:1A6BH         LINE#         146
  C:1A74H         LINE#         147
  C:1A78H         LINE#         148
  C:1A7FH         LINE#         149
  C:1A88H         LINE#         150
  C:1A8DH         LINE#         151
  C:1A96H         LINE#         152
  C:1A9EH         LINE#         153
  C:1AA0H         LINE#         154
  C:1AA0H         LINE#         155
  C:1AC2H         LINE#         156
  C:1AD8H         LINE#         157
  C:1ADDH         LINE#         161
  C:1AE0H         LINE#         162
  C:1AE3H         LINE#         163
  C:1AECH         LINE#         164
  C:1AF5H         LINE#         165
  C:1AFEH         LINE#         166
BL51 BANKED LINKER/LOCATER V6.22                                                      06/02/2018  10:26:57  PAGE 47


  C:1B07H         LINE#         167
  C:1B0FH         LINE#         169
  C:1B18H         LINE#         170
  C:1B21H         LINE#         172
  C:1B2AH         LINE#         173
  C:1B33H         LINE#         174
  C:1B3BH         LINE#         176
  C:1B43H         LINE#         177
  C:1B4BH         LINE#         178
  C:1B53H         LINE#         180
  C:1B5BH         LINE#         181
  C:1B63H         LINE#         182
  C:1B6BH         LINE#         183
  C:1B74H         LINE#         184
  C:1B7CH         LINE#         185
  C:1B85H         LINE#         186
  C:1B8EH         LINE#         187
  C:1B97H         LINE#         188
  C:1BA0H         LINE#         189
  C:1BA9H         LINE#         191
  C:1BB2H         LINE#         193
  C:1BBBH         LINE#         194
  C:1BC4H         LINE#         195
  C:1BCDH         LINE#         196
  C:1BD5H         LINE#         197
  C:1BDDH         LINE#         199
  C:1BE6H         LINE#         200
  C:1BEFH         LINE#         201
  C:1BF8H         LINE#         202
  C:1C01H         LINE#         203
  C:1C0AH         LINE#         204
  C:1C13H         LINE#         205
  C:1C1CH         LINE#         206
  C:1C25H         LINE#         207
  C:1C2EH         LINE#         208
  C:1C37H         LINE#         209
  C:1C40H         LINE#         210
  C:1C49H         LINE#         211
  C:1C52H         LINE#         212
  C:1C5BH         LINE#         213
  C:1C64H         LINE#         214
  C:1C6CH         LINE#         219
  C:1C75H         LINE#         220
  C:1C7EH         LINE#         221
  C:1C87H         LINE#         222
  C:1C90H         LINE#         223
  C:1C99H         LINE#         224
  C:1CA2H         LINE#         225
  C:1CABH         LINE#         227
  C:1CB4H         LINE#         228
  C:1CBDH         LINE#         229
  C:1CC6H         LINE#         230
  C:1CCEH         LINE#         231
  C:1CD7H         LINE#         232
  C:1CE0H         LINE#         233
  C:1CE8H         LINE#         234
  C:1CF0H         LINE#         235
BL51 BANKED LINKER/LOCATER V6.22                                                      06/02/2018  10:26:57  PAGE 48


  C:1CF8H         LINE#         236
  C:1D00H         LINE#         238
  C:1D09H         LINE#         239
  C:1D11H         LINE#         240
  C:1D1AH         LINE#         241
  C:1D23H         LINE#         242
  C:1D2CH         LINE#         243
  C:1D34H         LINE#         244
  C:1D3CH         LINE#         245
  C:1D44H         LINE#         246
  C:1D4DH         LINE#         247
  C:1D56H         LINE#         249
  C:1D5EH         LINE#         250
  C:1D66H         LINE#         251
  C:1D6EH         LINE#         252
  C:1D77H         LINE#         253
  C:1D80H         LINE#         254
  C:1D89H         LINE#         255
  C:1D91H         LINE#         256
  C:1D9AH         LINE#         257
  C:1DA2H         LINE#         258
  C:1DABH         LINE#         260
  C:1DB3H         LINE#         261
  C:1DBBH         LINE#         262
  C:1DC4H         LINE#         263
  C:1DCCH         LINE#         264
  C:1DD4H         LINE#         265
  C:1DDDH         LINE#         266
  C:1DE6H         LINE#         267
  C:1DEFH         LINE#         268
  C:1DF8H         LINE#         269
  C:1E00H         LINE#         271
  C:1E08H         LINE#         272
  C:1E11H         LINE#         273
  C:1E1AH         LINE#         274
  C:1E23H         LINE#         277
  C:1E2CH         LINE#         279
  C:1E35H         LINE#         280
  C:1E3EH         LINE#         282
  C:1E47H         LINE#         283
  C:1E50H         LINE#         284
  C:1E59H         LINE#         285
  C:1E62H         LINE#         286
  C:1E6BH         LINE#         287
  C:1E74H         LINE#         288
  C:1E7DH         LINE#         293
  C:1E8AH         LINE#         294
  C:1E94H         LINE#         295
  C:1EA4H         LINE#         296
  C:1EB1H         LINE#         302
  C:1EB9H         LINE#         303
  C:1EB9H         LINE#         304
  C:1EBFH         LINE#         305
  C:1EC8H         LINE#         306
  C:1EDCH         LINE#         307
  C:1EF6H         LINE#         308
  C:1EFBH         LINE#         309
BL51 BANKED LINKER/LOCATER V6.22                                                      06/02/2018  10:26:57  PAGE 49


  C:1EFBH         LINE#         313
  C:1EFDH         LINE#         316
  C:1F0AH         LINE#         317
  C:1F17H         LINE#         318
  C:1F1CH         LINE#         320
  C:1F29H         LINE#         321
  C:1F36H         LINE#         322
  C:1F47H         LINE#         323
  C:1F4CH         LINE#         325
  C:1F59H         LINE#         326
  C:1F66H         LINE#         327
  C:1F6BH         LINE#         330
  C:1F6DH         LINE#         331
  C:1F6DH         LINE#         332
  C:1F8DH         LINE#         336
  C:1FABH         LINE#         338
  C:1FB0H         LINE#         340
  C:1FB3H         LINE#         341
  -------         ENDPROC       INITBK4815
  -------         PROC          BK4815SLEEP
  C:7440H         LINE#         348
  C:7440H         LINE#         349
  C:7440H         LINE#         350
  C:7449H         LINE#         351
  C:744BH         LINE#         352
  C:744FH         LINE#         353
  -------         ENDPROC       BK4815SLEEP
  -------         PROC          BK4815RSSIANDSNR
  C:746FH         LINE#         354
  C:746FH         LINE#         355
  C:746FH         LINE#         356
  C:747CH         LINE#         357
  -------         ENDPROC       BK4815RSSIANDSNR
  -------         PROC          BK_ENABLE_TX_INBANDSIGNAL
  -------         DO            
  D:0002H         SYMBOL        val
  -------         ENDDO         
  C:72CFH         LINE#         363
  C:72CFH         LINE#         364
  C:72CFH         LINE#         365
  C:72D2H         LINE#         366
  C:72DBH         LINE#         367
  C:72DFH         LINE#         369
  C:72E7H         LINE#         370
  -------         ENDPROC       BK_ENABLE_TX_INBANDSIGNAL
  -------         PROC          BK_DISABLE_TX_INBANDSIGNAL
  -------         DO            
  D:0002H         SYMBOL        val
  -------         ENDDO         
  C:72E8H         LINE#         376
  C:72E8H         LINE#         377
  C:72E8H         LINE#         378
  C:72EBH         LINE#         379
  C:72F4H         LINE#         380
  C:72F8H         LINE#         381
  C:7300H         LINE#         382
  -------         ENDPROC       BK_DISABLE_TX_INBANDSIGNAL
BL51 BANKED LINKER/LOCATER V6.22                                                      06/02/2018  10:26:57  PAGE 50


  -------         PROC          BK_DTMF_RX_READ
  -------         DO            
  D:0004H         SYMBOL        dtmf_addr
  D:0002H         SYMBOL        val
  -------         ENDDO         
  C:7227H         LINE#         388
  C:7227H         LINE#         389
  C:7227H         LINE#         390
  C:7229H         LINE#         391
  C:722BH         LINE#         392
  C:7234H         LINE#         393
  C:7243H         LINE#         394
  C:7244H         LINE#         395
  -------         ENDPROC       BK_DTMF_RX_READ
  -------         PROC          BK_RX2TX
  -------         DO            
  D:0006H         SYMBOL        val
  -------         ENDDO         
  C:6A97H         LINE#         401
  C:6A97H         LINE#         402
  C:6A97H         LINE#         404
  C:6AA1H         LINE#         405
  C:6AA9H         LINE#         406
  C:6AAEH         LINE#         407
  C:6AB2H         LINE#         408
  C:6ABBH         LINE#         409
  C:6AC4H         LINE#         410
  C:6AC6H         LINE#         411
  -------         ENDPROC       BK_RX2TX
  -------         PROC          BK_TX2RX
  C:6EB2H         LINE#         417
  C:6EB2H         LINE#         418
  C:6EB2H         LINE#         419
  C:6EBAH         LINE#         420
  C:6EC3H         LINE#         424
  C:6ECDH         LINE#         425
  C:6ED5H         LINE#         426
  C:6ED7H         LINE#         427
  -------         ENDPROC       BK_TX2RX
  -------         PROC          BK_DTMF_INTERUPT_CLEAR
  -------         DO            
  X:0226H         SYMBOL        val
  -------         ENDDO         
  C:678AH         LINE#         428
  C:678AH         LINE#         429
  C:678AH         LINE#         433
  C:6797H         LINE#         434
  C:67A4H         LINE#         435
  C:67A9H         LINE#         436
  C:67B6H         LINE#         437
  C:67C3H         LINE#         438
  C:67C8H         LINE#         439
  -------         ENDPROC       BK_DTMF_INTERUPT_CLEAR
  -------         PROC          _BK_DTMF_TX
  D:0001H         SYMBOL        buf
  -------         DO            
  D:0006H         SYMBOL        val
BL51 BANKED LINKER/LOCATER V6.22                                                      06/02/2018  10:26:57  PAGE 51


  -------         ENDDO         
  C:5E54H         LINE#         455
  C:5E56H         LINE#         456
  C:5E56H         LINE#         457
  C:5E56H         LINE#         459
  C:5E5AH         LINE#         460
  C:5E5EH         LINE#         461
  C:5E63H         LINE#         462
  C:5E67H         LINE#         463
  C:5E6AH         LINE#         464
  C:5E72H         LINE#         465
  C:5E75H         LINE#         466
  C:5E78H         LINE#         467
  C:5E7AH         LINE#         468
  C:5E92H         LINE#         469
  C:5EAAH         LINE#         470
  C:5EADH         LINE#         471
  C:5EB4H         LINE#         472
  C:5EB7H         LINE#         474
  -------         ENDPROC       _BK_DTMF_TX
  -------         PROC          ISDTMFSENDOK
  -------         DO            
  D:0007H         SYMBOL        dat
  -------         ENDDO         
  C:6584H         LINE#         476
  C:6584H         LINE#         477
  C:6584H         LINE#         479
  C:6587H         LINE#         480
  C:6587H         LINE#         481
  C:658CH         LINE#         482
  C:658EH         LINE#         483
  C:6591H         LINE#         484
  C:659FH         LINE#         485
  C:65A1H         LINE#         486
  C:65A4H         LINE#         487
  C:65ABH         LINE#         488
  C:65AEH         LINE#         490
  C:65BEH         LINE#         491
  C:65BEH         LINE#         492
  C:65C0H         LINE#         493
  C:65C3H         LINE#         494
  C:65C3H         LINE#         495
  C:65C3H         LINE#         496
  C:65C5H         LINE#         497
  -------         ENDPROC       ISDTMFSENDOK
  -------         PROC          STARTBK4815TX
  -------         DO            
  X:021BH         SYMBOL        val
  X:021DH         SYMBOL        if_h
  X:021FH         SYMBOL        if_l
  X:0221H         SYMBOL        val1
  X:0225H         SYMBOL        freqband
  -------         ENDDO         
  C:282AH         LINE#         504
  C:282AH         LINE#         505
  C:282AH         LINE#         506
  C:2831H         LINE#         507
BL51 BANKED LINKER/LOCATER V6.22                                                      06/02/2018  10:26:57  PAGE 52


  C:2835H         LINE#         508
  C:2839H         LINE#         511
  C:283DH         LINE#         512
  C:283FH         LINE#         513
  C:2843H         LINE#         514
  C:2845H         LINE#         516
  C:2849H         LINE#         518
  C:2850H         LINE#         519
  C:28A9H         LINE#         520
  C:2906H         LINE#         521
  C:2960H         LINE#         522
  C:29BCH         LINE#         523
  C:29C9H         LINE#         525
  C:29F7H         LINE#         527
  C:2A17H         LINE#         528
  C:2A30H         LINE#         529
  C:2A39H         LINE#         530
  C:2A46H         LINE#         531
  C:2A51H         LINE#         533
  C:2A58H         LINE#         535
  C:2A65H         LINE#         536
  C:2A70H         LINE#         537
  C:2A7DH         LINE#         538
  C:2A82H         LINE#         543
  C:2A8BH         LINE#         544
  C:2A94H         LINE#         545
  C:2A9DH         LINE#         546
  C:2AA6H         LINE#         547
  C:2AACH         LINE#         548
  C:2AACH         LINE#         550
  C:2AB5H         LINE#         551
  C:2ABEH         LINE#         552
  C:2ACBH         LINE#         553
  C:2AD6H         LINE#         554
  C:2AE3H         LINE#         555
  C:2AE8H         LINE#         556
  C:2AEBH         LINE#         557
  C:2AF0H         LINE#         558
  C:2AF4H         LINE#         559
  C:2AF8H         LINE#         560
  C:2B06H         LINE#         561
  C:2B0BH         LINE#         562
  C:2B0DH         LINE#         563
  C:2B0FH         LINE#         564
  C:2B11H         LINE#         565
  C:2B13H         LINE#         566
  C:2B14H         LINE#         568
  C:2B14H         LINE#         569
  C:2B17H         LINE#         570
  C:2B17H         LINE#         571
  -------         ENDPROC       STARTBK4815TX
  -------         PROC          ENTERBK4815RX
  -------         DO            
  X:0226H         SYMBOL        val
  X:0228H         SYMBOL        if_h
  X:022AH         SYMBOL        if_l
  X:022CH         SYMBOL        val1
BL51 BANKED LINKER/LOCATER V6.22                                                      06/02/2018  10:26:57  PAGE 53


  X:0230H         SYMBOL        freqband
  -------         ENDDO         
  C:300EH         LINE#         577
  C:300EH         LINE#         578
  C:300EH         LINE#         580
  C:3015H         LINE#         581
  C:3019H         LINE#         582
  C:301DH         LINE#         584
  C:3021H         LINE#         585
  C:3023H         LINE#         586
  C:3027H         LINE#         587
  C:3029H         LINE#         588
  C:302DH         LINE#         590
  C:3034H         LINE#         591
  C:308DH         LINE#         592
  C:30EAH         LINE#         593
  C:3144H         LINE#         594
  C:31A0H         LINE#         595
  C:31ADH         LINE#         597
  C:31DBH         LINE#         599
  C:31FBH         LINE#         600
  C:3214H         LINE#         601
  C:321DH         LINE#         602
  C:322AH         LINE#         603
  C:3235H         LINE#         605
  C:323CH         LINE#         607
  C:3245H         LINE#         608
  C:324EH         LINE#         609
  C:3257H         LINE#         610
  C:3260H         LINE#         611
  C:3269H         LINE#         612
  C:3272H         LINE#         614
  C:327BH         LINE#         615
  -------         ENDPROC       ENTERBK4815RX
  -------         PROC          BK_DTMF_RECIVE
  -------         DO            
  D:0001H         SYMBOL        dat
  X:0217H         SYMBOL        i
  -------         ENDDO         
  C:6278H         LINE#         617
  C:6278H         LINE#         618
  C:6278H         LINE#         619
  C:627AH         LINE#         620
  C:627EH         LINE#         621
  C:6283H         LINE#         622
  C:6290H         LINE#         623
  C:6290H         LINE#         625
  C:6297H         LINE#         626
  C:62A1H         LINE#         628
  C:62A7H         LINE#         629
  C:62ACH         LINE#         630
  C:62AFH         LINE#         631
  C:62B2H         LINE#         632
  C:62B9H         LINE#         633
  C:62BBH         LINE#         635
  C:62BBH         LINE#         636
  C:62C0H         LINE#         638
BL51 BANKED LINKER/LOCATER V6.22                                                      06/02/2018  10:26:57  PAGE 54


  C:62C0H         LINE#         639
  C:62C3H         LINE#         640
  -------         ENDPROC       BK_DTMF_RECIVE
  -------         ENDMOD        KB4815

  -------         MODULE        MENU
  C:0000H         SYMBOL        _ICE_DUMMY_
  D:0080H         PUBLIC        P0
  D:0090H         PUBLIC        P1
  D:00A0H         PUBLIC        P2
  D:00B0H         PUBLIC        P3
  X:026AH         PUBLIC        mMenu
  D:00C8H         PUBLIC        T2CON1
  X:0272H         PUBLIC        key_UnLockcount
  C:63F0H         PUBLIC        InitMenu
  B:00A0H.4       PUBLIC        P24
  B:0090H.6       PUBLIC        P16
  X:0273H         PUBLIC        key_CombleFUPEMG
  X:0274H         PUBLIC        key_CombleFAF
  X:0275H         PUBLIC        key_CombleSQSet
  X:0276H         PUBLIC        key_CombleFDN
  D:0098H         PUBLIC        SCON0
  D:00D8H         PUBLIC        ADCON
  D:00C0H         PUBLIC        IIC0CON
  C:0026H         PUBLIC        _MenuOperate
  X:0277H         PUBLIC        key_CombleFUPAFRFGSCAN
  -------         PROC          _MENUOPERATE
  X:0219H         SYMBOL        key
  -------         DO            
  X:021AH         SYMBOL        i
  -------         ENDDO         
  C:0026H         LINE#         32
  C:002BH         LINE#         33
  C:002BH         LINE#         36
  C:0031H         LINE#         39
  C:0045H         LINE#         40
  C:004DH         LINE#         41
  C:004DH         LINE#         42
  C:005CH         LINE#         43
  C:005CH         LINE#         44
  C:0061H         LINE#         45
  C:0065H         LINE#         46
  C:0068H         LINE#         47
  C:0068H         LINE#         48
  C:0068H         LINE#         49
  C:007CH         LINE#         50
  C:0090H         LINE#         51
  C:00ABH         LINE#         52
  C:00C6H         LINE#         53
  C:00E1H         LINE#         54
  C:00F5H         LINE#         55
  C:0109H         LINE#         57
  C:0120H         LINE#         58
  C:0133H         LINE#         59
  C:0149H         LINE#         60
  C:0160H         LINE#         61
  C:0171H         LINE#         63
BL51 BANKED LINKER/LOCATER V6.22                                                      06/02/2018  10:26:57  PAGE 55


  C:01B7H         LINE#         64
  C:01B7H         LINE#         65
  C:01B7H         LINE#         66
  C:0214H         LINE#         67
  C:0214H         LINE#         68
  C:0214H         LINE#         69
  C:0217H         LINE#         70
  C:021EH         LINE#         71
  C:021EH         LINE#         72
  C:0220H         LINE#         73
  C:0226H         LINE#         74
  C:0229H         LINE#         75
  C:022CH         LINE#         76
  C:022EH         LINE#         77
  C:0231H         LINE#         78
  C:0245H         LINE#         79
  C:0248H         LINE#         80
  C:0248H         LINE#         82
  C:024BH         LINE#         83
  C:024EH         LINE#         84
  C:024EH         LINE#         85
  C:0251H         LINE#         86
  C:0261H         LINE#         87
  C:0267H         LINE#         88
  C:026AH         LINE#         89
  C:026DH         LINE#         90
  C:0270H         LINE#         91
  C:0270H         LINE#         92
  C:0275H         LINE#         93
  C:0278H         LINE#         94
  C:027BH         LINE#         95
  C:027BH         LINE#         96
  C:027EH         LINE#         97
  C:0285H         LINE#         98
  C:0285H         LINE#         99
  C:028CH         LINE#         100
  C:028CH         LINE#         101
  C:028EH         LINE#         102
  C:0290H         LINE#         103
  C:0292H         LINE#         105
  C:0292H         LINE#         106
  C:0298H         LINE#         107
  C:0298H         LINE#         108
  C:029BH         LINE#         109
  C:02A2H         LINE#         110
  C:02A5H         LINE#         111
  C:02AAH         LINE#         112
  C:02ADH         LINE#         113
  C:02B0H         LINE#         114
  C:02B3H         LINE#         115
  C:02B3H         LINE#         116
  C:02B6H         LINE#         117
  C:02C3H         LINE#         118
  C:02C3H         LINE#         119
  C:02C6H         LINE#         120
  C:02C8H         LINE#         121
  C:02C8H         LINE#         122
BL51 BANKED LINKER/LOCATER V6.22                                                      06/02/2018  10:26:57  PAGE 56


  C:02C8H         LINE#         123
  C:02CBH         LINE#         124
  C:02DBH         LINE#         125
  C:02EBH         LINE#         126
  C:02EEH         LINE#         127
  C:02F1H         LINE#         128
  C:02F1H         LINE#         129
  C:02F4H         LINE#         130
  C:0301H         LINE#         131
  C:0301H         LINE#         132
  C:0304H         LINE#         133
  C:0306H         LINE#         134
  C:0306H         LINE#         135
  C:0306H         LINE#         136
  C:0309H         LINE#         137
  C:031DH         LINE#         138
  C:031DH         LINE#         139
  C:0323H         LINE#         140
  C:0329H         LINE#         141
  C:032DH         LINE#         142
  C:032FH         LINE#         143
  C:0335H         LINE#         144
  C:033BH         LINE#         145
  C:033DH         LINE#         146
  C:0343H         LINE#         147
  C:0349H         LINE#         148
  C:034BH         LINE#         149
  C:0351H         LINE#         150
  C:0357H         LINE#         151
  C:0359H         LINE#         152
  C:035FH         LINE#         153
  C:0365H         LINE#         154
  C:0365H         LINE#         155
  C:0365H         LINE#         157
  C:036BH         LINE#         158
  C:036EH         LINE#         159
  C:0371H         LINE#         160
  C:0374H         LINE#         161
  C:0374H         LINE#         162
  C:0377H         LINE#         163
  C:037AH         LINE#         164
  C:037DH         LINE#         165
  C:037DH         LINE#         166
  C:038EH         LINE#         167
  C:0391H         LINE#         169
  C:0397H         LINE#         170
  C:039AH         LINE#         171
  C:039DH         LINE#         172
  C:03ACH         LINE#         173
  C:03AFH         LINE#         174
  C:03AFH         LINE#         175
  C:03B2H         LINE#         176
  C:03B8H         LINE#         177
  C:03BBH         LINE#         178
  C:03BEH         LINE#         179
  C:03C1H         LINE#         180
  C:03C1H         LINE#         181
BL51 BANKED LINKER/LOCATER V6.22                                                      06/02/2018  10:26:57  PAGE 57


  C:03C4H         LINE#         182
  C:03CAH         LINE#         183
  C:03CDH         LINE#         184
  C:03D0H         LINE#         185
  C:03D3H         LINE#         187
  C:03D3H         LINE#         188
  C:03D9H         LINE#         189
  C:03DDH         LINE#         190
  C:03E1H         LINE#         191
  C:03E5H         LINE#         192
  C:03E9H         LINE#         193
  C:03EFH         LINE#         195
  C:03F2H         LINE#         196
  C:03F9H         LINE#         197
  C:03F9H         LINE#         198
  C:03FBH         LINE#         199
  C:03FEH         LINE#         200
  C:0402H         LINE#         201
  C:0402H         LINE#         202
  C:0408H         LINE#         203
  C:040BH         LINE#         204
  C:0410H         LINE#         205
  C:0413H         LINE#         206
  C:0418H         LINE#         208
  C:041BH         LINE#         209
  C:041BH         LINE#         210
  C:041EH         LINE#         211
  C:0424H         LINE#         212
  C:0427H         LINE#         213
  C:042AH         LINE#         214
  C:042DH         LINE#         215
  C:042DH         LINE#         217
  C:042DH         LINE#         218
  C:042DH         LINE#         220
  C:0430H         LINE#         221
  C:0437H         LINE#         222
  C:0437H         LINE#         223
  C:0439H         LINE#         224
  C:043CH         LINE#         225
  C:043FH         LINE#         226
  C:0442H         LINE#         227
  C:0445H         LINE#         229
  C:0445H         LINE#         230
  C:044BH         LINE#         231
  C:044EH         LINE#         232
  C:0451H         LINE#         233
  C:0454H         LINE#         234
  C:0454H         LINE#         235
  C:0454H         LINE#         236
  C:0454H         LINE#         237
  C:0457H         LINE#         238
  C:045AH         LINE#         239
  C:045AH         LINE#         240
  C:045DH         LINE#         241
  C:0460H         LINE#         242
  C:0463H         LINE#         243
  C:0463H         LINE#         245
BL51 BANKED LINKER/LOCATER V6.22                                                      06/02/2018  10:26:57  PAGE 58


  C:046DH         LINE#         246
  C:046DH         LINE#         247
  C:0473H         LINE#         249
  C:0473H         LINE#         250
  C:0476H         LINE#         251
  C:047CH         LINE#         252
  C:047FH         LINE#         253
  C:048EH         LINE#         254
  C:0491H         LINE#         255
  C:0491H         LINE#         256
  C:0494H         LINE#         258
  C:0494H         LINE#         259
  C:04C3H         LINE#         260
  C:04C3H         LINE#         262
  C:04C3H         LINE#         263
  C:04CEH         LINE#         264
  C:04CEH         LINE#         265
  C:04D1H         LINE#         266
  C:04D7H         LINE#         267
  C:04DBH         LINE#         268
  C:04DEH         LINE#         269
  C:04DEH         LINE#         270
  C:04E1H         LINE#         271
  C:04E1H         LINE#         272
  C:04ECH         LINE#         273
  C:04ECH         LINE#         274
  C:04EFH         LINE#         275
  C:04F2H         LINE#         276
  C:04F2H         LINE#         277
  C:04F5H         LINE#         278
  C:04F5H         LINE#         280
  C:0500H         LINE#         281
  C:0500H         LINE#         282
  C:0503H         LINE#         283
  C:0510H         LINE#         284
  C:0510H         LINE#         285
  C:0513H         LINE#         286
  C:0515H         LINE#         287
  C:0515H         LINE#         288
  C:0515H         LINE#         289
  C:0515H         LINE#         291
  C:0520H         LINE#         292
  C:0520H         LINE#         293
  C:0523H         LINE#         294
  C:0526H         LINE#         295
  C:0526H         LINE#         296
  C:0529H         LINE#         297
  C:0529H         LINE#         298
  C:0534H         LINE#         299
  C:0534H         LINE#         300
  C:0537H         LINE#         301
  C:0544H         LINE#         302
  C:0544H         LINE#         303
  C:0547H         LINE#         304
  C:0549H         LINE#         305
  C:0549H         LINE#         306
  C:0549H         LINE#         310
BL51 BANKED LINKER/LOCATER V6.22                                                      06/02/2018  10:26:57  PAGE 59


  C:0549H         LINE#         311
  C:0549H         LINE#         312
  C:0554H         LINE#         313
  C:0554H         LINE#         314
  C:0557H         LINE#         315
  C:055DH         LINE#         316
  C:0561H         LINE#         317
  C:0564H         LINE#         318
  C:0564H         LINE#         319
  C:0567H         LINE#         320
  C:0567H         LINE#         321
  C:0572H         LINE#         322
  C:0572H         LINE#         323
  C:0575H         LINE#         324
  C:057BH         LINE#         325
  C:057FH         LINE#         326
  C:0582H         LINE#         327
  C:0582H         LINE#         328
  C:0585H         LINE#         329
  C:0585H         LINE#         330
  C:058BH         LINE#         331
  C:0590H         LINE#         332
  C:0593H         LINE#         333
  C:0596H         LINE#         334
  C:0596H         LINE#         335
  C:0599H         LINE#         336
  C:059EH         LINE#         337
  C:05A1H         LINE#         338
  C:05A1H         LINE#         339
  C:05ACH         LINE#         340
  C:05ACH         LINE#         341
  C:05AFH         LINE#         342
  C:05B2H         LINE#         343
  C:05B2H         LINE#         344
  C:05B5H         LINE#         345
  C:05B5H         LINE#         346
  C:05B8H         LINE#         347
  C:05BBH         LINE#         348
  C:05BBH         LINE#         349
  C:05BEH         LINE#         350
  C:05C1H         LINE#         351
  C:05D0H         LINE#         352
  C:05D3H         LINE#         353
  C:05D3H         LINE#         354
  C:05D6H         LINE#         355
  C:05D6H         LINE#         356
  C:0607H         LINE#         357
  C:0607H         LINE#         358
  C:0607H         LINE#         359
  C:060AH         LINE#         360
  C:0614H         LINE#         361
  C:0617H         LINE#         362
  C:061AH         LINE#         363
  C:061AH         LINE#         364
  C:061DH         LINE#         365
  C:062AH         LINE#         366
  C:062AH         LINE#         368
BL51 BANKED LINKER/LOCATER V6.22                                                      06/02/2018  10:26:57  PAGE 60


  C:0633H         LINE#         369
  C:0636H         LINE#         370
  C:0638H         LINE#         371
  C:0638H         LINE#         372
  C:0638H         LINE#         373
  C:063BH         LINE#         374
  C:0645H         LINE#         375
  C:0648H         LINE#         376
  C:064BH         LINE#         377
  C:064BH         LINE#         378
  C:064EH         LINE#         379
  C:0651H         LINE#         380
  C:065EH         LINE#         381
  C:065EH         LINE#         382
  C:0667H         LINE#         383
  C:066AH         LINE#         384
  C:066CH         LINE#         385
  C:066CH         LINE#         386
  C:066CH         LINE#         387
  C:066FH         LINE#         388
  C:0674H         LINE#         389
  C:0677H         LINE#         390
  C:067AH         LINE#         391
  C:067AH         LINE#         392
  C:067DH         LINE#         393
  C:0682H         LINE#         394
  C:0685H         LINE#         395
  C:0688H         LINE#         396
  C:0688H         LINE#         397
  C:0693H         LINE#         398
  C:0693H         LINE#         399
  C:0696H         LINE#         400
  C:069BH         LINE#         401
  C:06A1H         LINE#         402
  C:06A4H         LINE#         403
  C:06A4H         LINE#         404
  C:06A7H         LINE#         405
  C:06A7H         LINE#         406
  C:06AAH         LINE#         407
  C:06ADH         LINE#         408
  C:06ADH         LINE#         409
  C:06ADH         LINE#         410
  C:06ADH         LINE#         411
  C:06B0H         LINE#         412
  C:06B0H         LINE#         413
  C:06D7H         LINE#         414
  C:06D7H         LINE#         415
  C:06D7H         LINE#         417
  C:06E1H         LINE#         418
  C:06E4H         LINE#         419
  C:06E7H         LINE#         420
  C:06EAH         LINE#         421
  C:06EAH         LINE#         423
  C:06F4H         LINE#         424
  C:06F7H         LINE#         425
  C:06FAH         LINE#         426
  C:06FDH         LINE#         427
BL51 BANKED LINKER/LOCATER V6.22                                                      06/02/2018  10:26:57  PAGE 61


  C:06FDH         LINE#         428
  C:0700H         LINE#         429
  C:0714H         LINE#         430
  C:0714H         LINE#         431
  C:071AH         LINE#         432
  C:0720H         LINE#         433
  C:0722H         LINE#         434
  C:0728H         LINE#         435
  C:072EH         LINE#         436
  C:0730H         LINE#         437
  C:0736H         LINE#         438
  C:073CH         LINE#         439
  C:073EH         LINE#         440
  C:0744H         LINE#         441
  C:074AH         LINE#         442
  C:074CH         LINE#         443
  C:0752H         LINE#         444
  C:0758H         LINE#         445
  C:0758H         LINE#         446
  C:0758H         LINE#         447
  C:075DH         LINE#         448
  C:0760H         LINE#         449
  C:0763H         LINE#         450
  C:0763H         LINE#         451
  C:0766H         LINE#         452
  C:076BH         LINE#         453
  C:076EH         LINE#         454
  C:0771H         LINE#         455
  C:0771H         LINE#         456
  C:0774H         LINE#         457
  C:0777H         LINE#         458
  C:0777H         LINE#         459
  C:0782H         LINE#         460
  C:0782H         LINE#         461
  C:0783H         LINE#         462
  C:0789H         LINE#         463
  C:078CH         LINE#         464
  C:078CH         LINE#         465
  C:078FH         LINE#         466
  C:078FH         LINE#         467
  C:078FH         LINE#         468
  C:078FH         LINE#         469
  C:0792H         LINE#         470
  C:0792H         LINE#         471
  C:07ACH         LINE#         472
  C:07ACH         LINE#         473
  C:07ACH         LINE#         474
  C:07AFH         LINE#         475
  C:07B2H         LINE#         476
  C:07B5H         LINE#         477
  C:07B5H         LINE#         478
  C:07B8H         LINE#         479
  C:07BBH         LINE#         480
  C:07BEH         LINE#         481
  C:07BEH         LINE#         482
  C:07C1H         LINE#         483
  C:07C4H         LINE#         484
BL51 BANKED LINKER/LOCATER V6.22                                                      06/02/2018  10:26:57  PAGE 62


  C:07C7H         LINE#         485
  C:07C7H         LINE#         486
  C:07CAH         LINE#         487
  C:07D0H         LINE#         488
  C:07D3H         LINE#         489
  C:07D6H         LINE#         490
  C:07D6H         LINE#         491
  C:07D9H         LINE#         492
  C:07DCH         LINE#         493
  C:07DFH         LINE#         494
  C:07DFH         LINE#         495
  C:07DFH         LINE#         496
  C:07DFH         LINE#         498
  C:07E2H         LINE#         499
  C:07E2H         LINE#         500
  C:07F8H         LINE#         501
  C:07F8H         LINE#         502
  C:07F8H         LINE#         503
  C:07FBH         LINE#         505
  C:07FEH         LINE#         506
  C:07FEH         LINE#         507
  C:0801H         LINE#         509
  C:0804H         LINE#         510
  C:0804H         LINE#         511
  C:0807H         LINE#         512
  C:080AH         LINE#         513
  C:080DH         LINE#         514
  C:080DH         LINE#         515
  C:0810H         LINE#         516
  C:0816H         LINE#         517
  C:0819H         LINE#         518
  C:081CH         LINE#         519
  C:081CH         LINE#         520
  C:081CH         LINE#         521
  C:081CH         LINE#         522
  C:081FH         LINE#         523
  C:081FH         LINE#         524
  C:084BH         LINE#         525
  C:084BH         LINE#         526
  C:084BH         LINE#         527
  C:084EH         LINE#         528
  C:0851H         LINE#         529
  C:0854H         LINE#         530
  C:0854H         LINE#         531
  C:0857H         LINE#         532
  C:085AH         LINE#         533
  C:085DH         LINE#         534
  C:085DH         LINE#         535
  C:0860H         LINE#         536
  C:0865H         LINE#         537
  C:0868H         LINE#         538
  C:0877H         LINE#         539
  C:087AH         LINE#         540
  C:087AH         LINE#         541
  C:087DH         LINE#         542
  C:0880H         LINE#         543
  C:0880H         LINE#         544
BL51 BANKED LINKER/LOCATER V6.22                                                      06/02/2018  10:26:57  PAGE 63


  C:0886H         LINE#         545
  C:088BH         LINE#         546
  C:088EH         LINE#         547
  C:0891H         LINE#         548
  C:0891H         LINE#         549
  C:0894H         LINE#         550
  C:0899H         LINE#         551
  C:089CH         LINE#         552
  C:089CH         LINE#         554
  C:089FH         LINE#         555
  C:08A5H         LINE#         556
  C:08A9H         LINE#         557
  C:08ACH         LINE#         559
  C:08AFH         LINE#         560
  C:08AFH         LINE#         561
  C:08B2H         LINE#         562
  C:08B5H         LINE#         564
  C:08B8H         LINE#         565
  C:08B8H         LINE#         567
  C:08BBH         LINE#         568
  C:08C1H         LINE#         569
  C:08C5H         LINE#         570
  C:08C8H         LINE#         572
  C:08CBH         LINE#         573
  C:08CBH         LINE#         574
  C:08CEH         LINE#         575
  C:08D4H         LINE#         576
  C:08D8H         LINE#         577
  C:08DBH         LINE#         578
  C:08DEH         LINE#         580
  C:08DEH         LINE#         581
  C:08E1H         LINE#         582
  C:08E4H         LINE#         583
  C:08E7H         LINE#         584
  C:08E7H         LINE#         585
  C:08E7H         LINE#         586
  C:08E7H         LINE#         587
  C:08EAH         LINE#         588
  C:08EAH         LINE#         589
  C:0901H         LINE#         590
  C:0901H         LINE#         591
  C:0901H         LINE#         592
  C:090AH         LINE#         593
  C:090AH         LINE#         594
  C:090DH         LINE#         595
  C:090DH         LINE#         596
  C:0917H         LINE#         597
  C:091AH         LINE#         598
  C:091DH         LINE#         600
  C:091DH         LINE#         601
  C:0920H         LINE#         602
  C:092AH         LINE#         603
  C:092DH         LINE#         604
  C:0930H         LINE#         605
  C:0930H         LINE#         606
  C:0933H         LINE#         608
  C:0936H         LINE#         609
BL51 BANKED LINKER/LOCATER V6.22                                                      06/02/2018  10:26:57  PAGE 64


  C:0939H         LINE#         610
  C:0939H         LINE#         611
  C:093CH         LINE#         612
  C:093FH         LINE#         613
  C:093FH         LINE#         614
  C:093FH         LINE#         615
  C:093FH         LINE#         616
  C:0942H         LINE#         617
  C:0942H         LINE#         618
  C:096DH         LINE#         619
  C:096DH         LINE#         620
  C:096DH         LINE#         621
  C:0970H         LINE#         622
  C:097AH         LINE#         623
  C:097DH         LINE#         624
  C:0980H         LINE#         625
  C:0980H         LINE#         626
  C:0983H         LINE#         627
  C:0986H         LINE#         628
  C:0993H         LINE#         629
  C:0993H         LINE#         630
  C:099CH         LINE#         631
  C:099FH         LINE#         632
  C:09A1H         LINE#         633
  C:09A1H         LINE#         634
  C:09A1H         LINE#         635
  C:09A4H         LINE#         636
  C:09AEH         LINE#         637
  C:09B1H         LINE#         638
  C:09B4H         LINE#         639
  C:09B4H         LINE#         640
  C:09B7H         LINE#         641
  C:09C4H         LINE#         642
  C:09C4H         LINE#         643
  C:09C7H         LINE#         644
  C:09D1H         LINE#         645
  C:09D4H         LINE#         646
  C:09D6H         LINE#         647
  C:09D6H         LINE#         648
  C:09D6H         LINE#         649
  C:09D9H         LINE#         650
  C:09E3H         LINE#         651
  C:09E9H         LINE#         652
  C:09ECH         LINE#         653
  C:09EFH         LINE#         654
  C:09EFH         LINE#         655
  C:09F2H         LINE#         656
  C:09F7H         LINE#         657
  C:09FAH         LINE#         658
  C:09FDH         LINE#         659
  C:09FDH         LINE#         660
  C:0A00H         LINE#         661
  C:0A03H         LINE#         662
  C:0A03H         LINE#         663
  C:0A03H         LINE#         664
  C:0A03H         LINE#         665
  C:0A06H         LINE#         666
BL51 BANKED LINKER/LOCATER V6.22                                                      06/02/2018  10:26:57  PAGE 65


  C:0A06H         LINE#         667
  C:0A31H         LINE#         668
  C:0A31H         LINE#         669
  C:0A31H         LINE#         670
  C:0A34H         LINE#         671
  C:0A3EH         LINE#         672
  C:0A41H         LINE#         673
  C:0A44H         LINE#         674
  C:0A44H         LINE#         675
  C:0A47H         LINE#         676
  C:0A4AH         LINE#         677
  C:0A57H         LINE#         678
  C:0A57H         LINE#         679
  C:0A60H         LINE#         680
  C:0A63H         LINE#         681
  C:0A65H         LINE#         682
  C:0A65H         LINE#         683
  C:0A65H         LINE#         684
  C:0A68H         LINE#         685
  C:0A72H         LINE#         686
  C:0A75H         LINE#         687
  C:0A78H         LINE#         688
  C:0A78H         LINE#         689
  C:0A7BH         LINE#         690
  C:0A7EH         LINE#         691
  C:0A8BH         LINE#         692
  C:0A8BH         LINE#         693
  C:0A94H         LINE#         694
  C:0A97H         LINE#         695
  C:0A99H         LINE#         696
  C:0A99H         LINE#         697
  C:0A99H         LINE#         698
  C:0A9CH         LINE#         699
  C:0AA6H         LINE#         700
  C:0AACH         LINE#         701
  C:0AAFH         LINE#         702
  C:0AB2H         LINE#         703
  C:0AB2H         LINE#         704
  C:0AB5H         LINE#         705
  C:0ABAH         LINE#         706
  C:0ABDH         LINE#         707
  C:0AC0H         LINE#         708
  C:0AC0H         LINE#         709
  C:0AC3H         LINE#         710
  C:0AC6H         LINE#         711
  C:0AC6H         LINE#         712
  C:0AC6H         LINE#         713
  C:0AC6H         LINE#         714
  C:0AC9H         LINE#         715
  C:0AC9H         LINE#         716
  C:0AF4H         LINE#         717
  C:0AF4H         LINE#         718
  C:0AF4H         LINE#         719
  C:0AF7H         LINE#         720
  C:0B01H         LINE#         721
  C:0B04H         LINE#         722
  C:0B07H         LINE#         723
BL51 BANKED LINKER/LOCATER V6.22                                                      06/02/2018  10:26:57  PAGE 66


  C:0B07H         LINE#         724
  C:0B0AH         LINE#         725
  C:0B0DH         LINE#         726
  C:0B1AH         LINE#         727
  C:0B1AH         LINE#         728
  C:0B23H         LINE#         729
  C:0B26H         LINE#         730
  C:0B28H         LINE#         731
  C:0B28H         LINE#         732
  C:0B28H         LINE#         733
  C:0B2BH         LINE#         734
  C:0B35H         LINE#         735
  C:0B38H         LINE#         736
  C:0B3BH         LINE#         737
  C:0B3BH         LINE#         738
  C:0B3EH         LINE#         739
  C:0B41H         LINE#         740
  C:0B4EH         LINE#         741
  C:0B4EH         LINE#         742
  C:0B57H         LINE#         743
  C:0B5AH         LINE#         744
  C:0B5CH         LINE#         745
  C:0B5CH         LINE#         746
  C:0B5CH         LINE#         747
  C:0B5FH         LINE#         748
  C:0B69H         LINE#         749
  C:0B6FH         LINE#         750
  C:0B72H         LINE#         751
  C:0B75H         LINE#         752
  C:0B75H         LINE#         753
  C:0B78H         LINE#         754
  C:0B7DH         LINE#         755
  C:0B80H         LINE#         757
  C:0B83H         LINE#         758
  C:0B83H         LINE#         759
  C:0B86H         LINE#         760
  C:0B89H         LINE#         761
  C:0B89H         LINE#         762
  C:0B89H         LINE#         763
  C:0B89H         LINE#         764
  C:0B8CH         LINE#         765
  C:0B8CH         LINE#         766
  C:0BA6H         LINE#         767
  C:0BA6H         LINE#         768
  C:0BA6H         LINE#         770
  C:0BA9H         LINE#         771
  C:0BACH         LINE#         772
  C:0BACH         LINE#         774
  C:0BAFH         LINE#         775
  C:0BB2H         LINE#         776
  C:0BB2H         LINE#         778
  C:0BB5H         LINE#         779
  C:0BBCH         LINE#         780
  C:0BBCH         LINE#         781
  C:0BC2H         LINE#         782
  C:0BC6H         LINE#         784
  C:0BCAH         LINE#         785
BL51 BANKED LINKER/LOCATER V6.22                                                      06/02/2018  10:26:57  PAGE 67


  C:0BCDH         LINE#         786
  C:0BD1H         LINE#         787
  C:0BD1H         LINE#         788
  C:0BD4H         LINE#         789
  C:0BD9H         LINE#         790
  C:0BDDH         LINE#         791
  C:0BE0H         LINE#         792
  C:0BE5H         LINE#         793
  C:0BE8H         LINE#         794
  C:0BE8H         LINE#         795
  C:0BEBH         LINE#         796
  C:0BEEH         LINE#         797
  C:0BEEH         LINE#         798
  C:0BF1H         LINE#         799
  C:0BF7H         LINE#         800
  C:0BFBH         LINE#         801
  C:0BFEH         LINE#         802
  C:0C01H         LINE#         803
  C:0C01H         LINE#         804
  C:0C04H         LINE#         805
  C:0C0AH         LINE#         806
  C:0C0EH         LINE#         807
  C:0C11H         LINE#         808
  C:0C14H         LINE#         809
  C:0C14H         LINE#         810
  C:0C17H         LINE#         811
  C:0C1AH         LINE#         812
  C:0C1AH         LINE#         813
  C:0C1DH         LINE#         814
  C:0C1DH         LINE#         815
  C:0C2CH         LINE#         816
  C:0C2CH         LINE#         817
  C:0C2CH         LINE#         818
  C:0C31H         LINE#         819
  C:0C34H         LINE#         820
  C:0C37H         LINE#         821
  C:0C37H         LINE#         822
  C:0C3CH         LINE#         823
  C:0C3FH         LINE#         824
  C:0C42H         LINE#         825
  C:0C42H         LINE#         826
  C:0C42H         LINE#         827
  C:0C42H         LINE#         828
  C:0C45H         LINE#         830
  C:0C45H         LINE#         831
  C:0C63H         LINE#         832
  C:0C63H         LINE#         833
  C:0C63H         LINE#         834
  C:0C66H         LINE#         835
  C:0C69H         LINE#         836
  C:0C6CH         LINE#         837
  C:0C6CH         LINE#         838
  C:0C6FH         LINE#         839
  C:0C72H         LINE#         840
  C:0C7FH         LINE#         841
  C:0C7FH         LINE#         842
  C:0C82H         LINE#         843
BL51 BANKED LINKER/LOCATER V6.22                                                      06/02/2018  10:26:57  PAGE 68


  C:0C84H         LINE#         844
  C:0C84H         LINE#         845
  C:0C84H         LINE#         846
  C:0C87H         LINE#         847
  C:0C8AH         LINE#         848
  C:0C8DH         LINE#         849
  C:0C8DH         LINE#         850
  C:0C90H         LINE#         851
  C:0C93H         LINE#         852
  C:0CA0H         LINE#         853
  C:0CA0H         LINE#         854
  C:0CA3H         LINE#         855
  C:0CA5H         LINE#         856
  C:0CA5H         LINE#         857
  C:0CA5H         LINE#         858
  C:0CA8H         LINE#         859
  C:0CADH         LINE#         860
  C:0CB0H         LINE#         861
  C:0CB8H         LINE#         862
  C:0CBBH         LINE#         863
  C:0CBBH         LINE#         864
  C:0CBEH         LINE#         865
  C:0CC1H         LINE#         866
  C:0CC1H         LINE#         867
  C:0CC4H         LINE#         868
  C:0CC4H         LINE#         869
  C:0CDFH         LINE#         870
  C:0CDFH         LINE#         871
  C:0CDFH         LINE#         872
  C:0CE2H         LINE#         873
  C:0CE5H         LINE#         874
  C:0CE7H         LINE#         875
  C:0CE7H         LINE#         876
  C:0CEAH         LINE#         877
  C:0CEDH         LINE#         878
  C:0CF7H         LINE#         879
  C:0CF7H         LINE#         880
  C:0CFAH         LINE#         881
  C:0CFCH         LINE#         882
  C:0CFCH         LINE#         883
  C:0CFCH         LINE#         884
  C:0CFFH         LINE#         885
  C:0D02H         LINE#         886
  C:0D04H         LINE#         887
  C:0D04H         LINE#         888
  C:0D07H         LINE#         889
  C:0D0AH         LINE#         890
  C:0D14H         LINE#         891
  C:0D14H         LINE#         892
  C:0D17H         LINE#         893
  C:0D19H         LINE#         894
  C:0D19H         LINE#         895
  C:0D19H         LINE#         896
  C:0D1CH         LINE#         897
  C:0D22H         LINE#         898
  C:0D27H         LINE#         899
  C:0D27H         LINE#         900
BL51 BANKED LINKER/LOCATER V6.22                                                      06/02/2018  10:26:57  PAGE 69


  C:0D2AH         LINE#         901
  C:0D2DH         LINE#         902
  C:0D34H         LINE#         903
  C:0D37H         LINE#         904
  C:0D3EH         LINE#         905
  C:0D4AH         LINE#         906
  C:0D4DH         LINE#         907
  C:0D4FH         LINE#         908
  C:0D4FH         LINE#         909
  C:0D52H         LINE#         910
  C:0D52H         LINE#         911
  C:0D52H         LINE#         912
  C:0D52H         LINE#         913
  C:0D52H         LINE#         914
  C:0D52H         LINE#         915
  C:0D52H         LINE#         916
  C:0D57H         LINE#         917
  -------         ENDPROC       _MENUOPERATE
  -------         PROC          INITMENU
  C:63F0H         LINE#         924
  C:63F0H         LINE#         925
  C:63F0H         LINE#         926
  C:63F5H         LINE#         927
  C:63F7H         LINE#         928
  C:6400H         LINE#         929
  C:6403H         LINE#         930
  C:6405H         LINE#         931
  C:6407H         LINE#         932
  C:640EH         LINE#         933
  C:6414H         LINE#         934
  C:6418H         LINE#         935
  C:641CH         LINE#         936
  C:6420H         LINE#         937
  C:6424H         LINE#         938
  C:6429H         LINE#         939
  C:642FH         LINE#         940
  C:6431H         LINE#         941
  C:6433H         LINE#         942
  -------         ENDPROC       INITMENU
  -------         ENDMOD        MENU

  -------         MODULE        AT24C08
  C:0000H         SYMBOL        _ICE_DUMMY_
  C:62C4H         PUBLIC        at24c08I2cReadByte
  D:0080H         PUBLIC        P0
  D:0090H         PUBLIC        P1
  D:00A0H         PUBLIC        P2
  D:00B0H         PUBLIC        P3
  C:68B9H         PUBLIC        _at24c08I2cWriteByte
  C:738FH         PUBLIC        at24c08I2cStop
  D:00C8H         PUBLIC        T2CON1
  C:5DE7H         PUBLIC        _eepromWritePage
  C:0016H         PUBLIC        initAt24c08
  C:6038H         PUBLIC        _eepromReadByte
  C:52FDH         PUBLIC        _eepromReadSequential
  C:6478H         PUBLIC        _eepromWriteByte
  B:0080H.2       PUBLIC        P02
BL51 BANKED LINKER/LOCATER V6.22                                                      06/02/2018  10:26:57  PAGE 70


  B:0080H.3       PUBLIC        P03
  D:00ECH         PUBLIC        P0MDL
  D:0098H         PUBLIC        SCON0
  C:6434H         PUBLIC        at24c08RxAck
  D:00D8H         PUBLIC        ADCON
  C:6D00H         PUBLIC        _at24c08TxAck
  D:00C0H         PUBLIC        IIC0CON
  C:741CH         PUBLIC        at24c08I2cStart
  -------         PROC          INITAT24C08
  C:0016H         LINE#         9
  C:0016H         LINE#         10
  C:0016H         LINE#         12
  C:0019H         LINE#         13
  C:001CH         LINE#         14
  C:001EH         LINE#         15
  C:0020H         LINE#         16
  -------         ENDPROC       INITAT24C08
  -------         PROC          AT24C08I2CSTART
  C:741CH         LINE#         22
  C:741CH         LINE#         23
  C:741CH         LINE#         24
  C:741EH         LINE#         25
  C:7420H         LINE#         26
  C:7425H         LINE#         27
  C:7427H         LINE#         28
  C:742CH         LINE#         29
  C:742EH         LINE#         30
  -------         ENDPROC       AT24C08I2CSTART
  -------         PROC          AT24C08I2CSTOP
  C:738FH         LINE#         36
  C:738FH         LINE#         37
  C:738FH         LINE#         38
  C:7391H         LINE#         39
  C:7396H         LINE#         40
  C:7398H         LINE#         41
  C:739DH         LINE#         42
  C:739FH         LINE#         43
  C:73A4H         LINE#         44
  -------         ENDPROC       AT24C08I2CSTOP
  -------         PROC          AT24C08RXACK
  -------         DO            
  X:0223H         SYMBOL        tempTime
  -------         ENDDO         
  C:6434H         LINE#         50
  C:6434H         LINE#         51
  C:6434H         LINE#         53
  C:6439H         LINE#         54
  C:643BH         LINE#         55
  C:6440H         LINE#         56
  C:6446H         LINE#         58
  C:6448H         LINE#         59
  C:644DH         LINE#         60
  C:6450H         LINE#         61
  C:6450H         LINE#         62
  C:6456H         LINE#         63
  C:645CH         LINE#         64
  C:645CH         LINE#         66
BL51 BANKED LINKER/LOCATER V6.22                                                      06/02/2018  10:26:57  PAGE 71


  C:645FH         LINE#         67
  C:6465H         LINE#         68
  C:6468H         LINE#         69
  C:6468H         LINE#         70
  C:6468H         LINE#         72
  C:646AH         LINE#         73
  C:6470H         LINE#         74
  C:6475H         LINE#         75
  C:6477H         LINE#         76
  -------         ENDPROC       AT24C08RXACK
  -------         PROC          _AT24C08TXACK
  X:0218H         SYMBOL        ACK
  C:6D00H         LINE#         82
  C:6D05H         LINE#         83
  C:6D05H         LINE#         84
  C:6D07H         LINE#         85
  C:6D0CH         LINE#         86
  C:6D14H         LINE#         87
  C:6D19H         LINE#         88
  C:6D1BH         LINE#         89
  C:6D20H         LINE#         90
  C:6D22H         LINE#         91
  C:6D27H         LINE#         92
  -------         ENDPROC       _AT24C08TXACK
  -------         PROC          _AT24C08I2CWRITEBYTE
  X:0223H         SYMBOL        value
  -------         DO            
  X:0224H         SYMBOL        i
  -------         ENDDO         
  C:68B9H         LINE#         98
  C:68BEH         LINE#         99
  C:68BEH         LINE#         102
  C:68C0H         LINE#         103
  C:68C3H         LINE#         104
  C:68C3H         LINE#         105
  C:68CAH         LINE#         106
  C:68CAH         LINE#         107
  C:68CCH         LINE#         108
  C:68CEH         LINE#         110
  C:68CEH         LINE#         111
  C:68D0H         LINE#         112
  C:68D0H         LINE#         113
  C:68D5H         LINE#         114
  C:68D7H         LINE#         115
  C:68DCH         LINE#         116
  C:68DEH         LINE#         117
  C:68E6H         LINE#         118
  C:68F0H         LINE#         119
  -------         ENDPROC       _AT24C08I2CWRITEBYTE
  -------         PROC          AT24C08I2CREADBYTE
  -------         DO            
  X:0218H         SYMBOL        i
  X:0219H         SYMBOL        temp
  -------         ENDDO         
  C:62C4H         LINE#         125
  C:62C4H         LINE#         126
  C:62C4H         LINE#         129
BL51 BANKED LINKER/LOCATER V6.22                                                      06/02/2018  10:26:57  PAGE 72


  C:62C6H         LINE#         130
  C:62CBH         LINE#         131
  C:62D1H         LINE#         132
  C:62D6H         LINE#         133
  C:62DBH         LINE#         134
  C:62DBH         LINE#         135
  C:62E3H         LINE#         136
  C:62E6H         LINE#         137
  C:62E6H         LINE#         138
  C:62EAH         LINE#         139
  C:62EAH         LINE#         140
  C:62EFH         LINE#         141
  C:62F1H         LINE#         142
  C:62F6H         LINE#         143
  C:62F8H         LINE#         144
  C:6304H         LINE#         145
  C:630AH         LINE#         146
  C:630FH         LINE#         147
  -------         ENDPROC       AT24C08I2CREADBYTE
  -------         PROC          _EEPROMWRITEBYTE
  X:0220H         SYMBOL        page
  X:0221H         SYMBOL        addr
  X:0222H         SYMBOL        value
  C:6478H         LINE#         153
  C:6483H         LINE#         154
  C:6483H         LINE#         155
  C:6486H         LINE#         156
  C:648EH         LINE#         157
  C:6494H         LINE#         158
  C:649CH         LINE#         159
  C:64A2H         LINE#         160
  C:64AAH         LINE#         161
  C:64B0H         LINE#         162
  C:64B3H         LINE#         163
  C:64BAH         LINE#         164
  -------         ENDPROC       _EEPROMWRITEBYTE
  -------         PROC          _EEPROMWRITEPAGE
  X:0280H         SYMBOL        page
  X:0281H         SYMBOL        p_value
  X:0284H         SYMBOL        addr
  X:0285H         SYMBOL        len
  -------         DO            
  X:0286H         SYMBOL        i
  -------         ENDDO         
  C:5DE7H         LINE#         170
  C:5DF5H         LINE#         171
  C:5DF5H         LINE#         173
  C:5DF8H         LINE#         174
  C:5E00H         LINE#         175
  C:5E06H         LINE#         176
  C:5E0EH         LINE#         177
  C:5E14H         LINE#         179
  C:5E24H         LINE#         180
  C:5E24H         LINE#         181
  C:5E3BH         LINE#         182
  C:5E41H         LINE#         183
  C:5E49H         LINE#         184
BL51 BANKED LINKER/LOCATER V6.22                                                      06/02/2018  10:26:57  PAGE 73


  C:5E4CH         LINE#         185
  C:5E53H         LINE#         186
  -------         ENDPROC       _EEPROMWRITEPAGE
  -------         PROC          _EEPROMREADBYTE
  X:0215H         SYMBOL        page
  X:0216H         SYMBOL        addr
  -------         DO            
  X:0217H         SYMBOL        value
  -------         ENDDO         
  C:6038H         LINE#         192
  C:6040H         LINE#         193
  C:6040H         LINE#         196
  C:6043H         LINE#         197
  C:604BH         LINE#         198
  C:6051H         LINE#         199
  C:6059H         LINE#         200
  C:605FH         LINE#         201
  C:6062H         LINE#         202
  C:606CH         LINE#         203
  C:6072H         LINE#         204
  C:607AH         LINE#         205
  C:607FH         LINE#         206
  C:6082H         LINE#         207
  C:6089H         LINE#         208
  C:608EH         LINE#         209
  -------         ENDPROC       _EEPROMREADBYTE
  -------         PROC          _EEPROMREADSEQUENTIAL
  X:0278H         SYMBOL        page
  X:0279H         SYMBOL        p_data
  X:027CH         SYMBOL        addr
  X:027DH         SYMBOL        length
  -------         DO            
  X:027EH         SYMBOL        i
  -------         ENDDO         
  C:52FDH         LINE#         215
  C:530BH         LINE#         216
  C:530BH         LINE#         219
  C:530EH         LINE#         220
  C:5316H         LINE#         221
  C:531CH         LINE#         222
  C:5324H         LINE#         223
  C:532AH         LINE#         224
  C:532DH         LINE#         225
  C:5337H         LINE#         226
  C:533DH         LINE#         227
  C:535CH         LINE#         228
  C:535CH         LINE#         229
  C:5379H         LINE#         230
  C:537EH         LINE#         231
  C:538EH         LINE#         232
  C:53ABH         LINE#         233
  C:53B0H         LINE#         235
  C:53B3H         LINE#         236
  -------         ENDPROC       _EEPROMREADSEQUENTIAL
  -------         ENDMOD        AT24C08

  -------         MODULE        MEMORY
BL51 BANKED LINKER/LOCATER V6.22                                                      06/02/2018  10:26:57  PAGE 74


  C:0000H         SYMBOL        _ICE_DUMMY_
  D:0080H         PUBLIC        P0
  D:0090H         PUBLIC        P1
  D:00A0H         PUBLIC        P2
  D:00B0H         PUBLIC        P3
  B:00A8H.7       PUBLIC        EA
  D:00C8H         PUBLIC        T2CON1
  C:6CD7H         PUBLIC        _loadData
  C:6A35H         PUBLIC        _saveData
  C:3480H         PUBLIC        loadAllParam
  C:74B0H         PUBLIC        initMemory
  C:6A66H         PUBLIC        saveMenuParam
  C:5468H         PUBLIC        saveDtmf
  C:408AH         PUBLIC        saveAllParam
  C:0012H         PUBLIC        loadToBK4815
  D:0098H         PUBLIC        SCON0
  D:00D8H         PUBLIC        ADCON
  D:00C0H         PUBLIC        IIC0CON
  -------         PROC          _SAVEDATA
  D:0002H         SYMBOL        addr
  D:0001H         SYMBOL        dat
  -------         DO            
  D:0007H         SYMBOL        page
  -------         ENDDO         
  C:6A35H         LINE#         25
  C:6A3BH         LINE#         26
  C:6A3BH         LINE#         29
  C:6A3DH         LINE#         30
  C:6A4AH         LINE#         31
  C:6A4AH         LINE#         32
  C:6A4EH         LINE#         33
  C:6A52H         LINE#         34
  C:6A56H         LINE#         35
  C:6A58H         LINE#         36
  C:6A58H         LINE#         38
  C:6A5AH         LINE#         39
  C:6A63H         LINE#         40
  C:6A65H         LINE#         41
  -------         ENDPROC       _SAVEDATA
  -------         PROC          _LOADDATA
  D:0004H         SYMBOL        addr
  -------         DO            
  D:0007H         SYMBOL        dat
  D:0007H         SYMBOL        page
  -------         ENDDO         
  C:6CD7H         LINE#         48
  C:6CDBH         LINE#         49
  C:6CDBH         LINE#         52
  C:6CDDH         LINE#         53
  C:6CEAH         LINE#         54
  C:6CEAH         LINE#         55
  C:6CEEH         LINE#         56
  C:6CF2H         LINE#         57
  C:6CF6H         LINE#         58
  C:6CF8H         LINE#         59
  C:6CF8H         LINE#         61
  C:6CFAH         LINE#         62
BL51 BANKED LINKER/LOCATER V6.22                                                      06/02/2018  10:26:57  PAGE 75


  C:6CFDH         LINE#         63
  C:6CFFH         LINE#         64
  C:6CFFH         LINE#         65
  -------         ENDPROC       _LOADDATA
  -------         PROC          SAVEMENUPARAM
  C:6A66H         LINE#         71
  C:6A66H         LINE#         72
  C:6A66H         LINE#         73
  C:6A72H         LINE#         74
  C:6A7EH         LINE#         75
  C:6A8AH         LINE#         76
  C:6A96H         LINE#         77
  -------         ENDPROC       SAVEMENUPARAM
  -------         PROC          SAVEALLPARAM
  -------         DO            
  X:021CH         SYMBOL        fre
  -------         ENDDO         
  C:408AH         LINE#         84
  C:408AH         LINE#         85
  C:408AH         LINE#         86
  C:40ABH         LINE#         87
  C:40B3H         LINE#         88
  C:40BFH         LINE#         89
  C:40CBH         LINE#         90
  C:40D7H         LINE#         91
  C:40E3H         LINE#         92
  C:40EFH         LINE#         93
  C:40FBH         LINE#         94
  C:4107H         LINE#         95
  C:4113H         LINE#         96
  C:411FH         LINE#         97
  C:412BH         LINE#         99
  C:4137H         LINE#         100
  C:4143H         LINE#         101
  C:414FH         LINE#         102
  C:415BH         LINE#         104
  C:4167H         LINE#         105
  C:4173H         LINE#         106
  C:417FH         LINE#         108
  C:418BH         LINE#         109
  C:4197H         LINE#         111
  C:41B3H         LINE#         112
  C:41D4H         LINE#         113
  C:41F5H         LINE#         114
  C:420CH         LINE#         116
  -------         ENDPROC       SAVEALLPARAM
  -------         PROC          SAVEDTMF
  -------         DO            
  X:0215H         SYMBOL        fre
  -------         ENDDO         
  C:5468H         LINE#         118
  C:5468H         LINE#         119
  C:5468H         LINE#         120
  C:5489H         LINE#         121
  C:5495H         LINE#         122
  C:54B1H         LINE#         123
  C:54D2H         LINE#         124
BL51 BANKED LINKER/LOCATER V6.22                                                      06/02/2018  10:26:57  PAGE 76


  C:54F3H         LINE#         125
  C:550AH         LINE#         126
  -------         ENDPROC       SAVEDTMF
  -------         PROC          LOADTOBK4815
  C:0012H         LINE#         127
  C:0012H         LINE#         128
  C:0012H         LINE#         130
  -------         ENDPROC       LOADTOBK4815
  -------         PROC          LOADALLPARAM
  -------         DO            
  X:0211H         SYMBOL        fre
  -------         ENDDO         
  C:3480H         LINE#         139
  C:3480H         LINE#         140
  C:3480H         LINE#         141
  C:348AH         LINE#         142
  C:3495H         LINE#         143
  C:3495H         LINE#         144
  C:3498H         LINE#         145
  C:349BH         LINE#         147
  C:349EH         LINE#         148
  C:34A1H         LINE#         150
  C:34A1H         LINE#         151
  C:34ADH         LINE#         152
  C:34B9H         LINE#         153
  C:34C5H         LINE#         154
  C:34D1H         LINE#         155
  C:34D5H         LINE#         157
  C:34E1H         LINE#         158
  C:34E5H         LINE#         159
  C:34EBH         LINE#         160
  C:34F7H         LINE#         161
  C:3503H         LINE#         162
  C:350FH         LINE#         163
  C:351BH         LINE#         164
  C:3527H         LINE#         165
  C:3533H         LINE#         166
  C:353FH         LINE#         167
  C:3550H         LINE#         168
  C:3558H         LINE#         170
  C:3564H         LINE#         171
  C:3570H         LINE#         172
  C:357CH         LINE#         173
  C:3588H         LINE#         175
  C:3594H         LINE#         176
  C:35A0H         LINE#         177
  C:35ACH         LINE#         178
  C:363BH         LINE#         179
  C:365DH         LINE#         182
  C:365DH         LINE#         183
  C:3663H         LINE#         184
  C:3667H         LINE#         185
  C:366AH         LINE#         186
  -------         ENDPROC       LOADALLPARAM
  -------         PROC          INITMEMORY
  C:74B0H         LINE#         192
  C:74B0H         LINE#         193
BL51 BANKED LINKER/LOCATER V6.22                                                      06/02/2018  10:26:57  PAGE 77


  C:74B0H         LINE#         194
  C:74B3H         LINE#         195
  C:74B6H         LINE#         196
  -------         ENDPROC       INITMEMORY
  -------         ENDMOD        MEMORY

  -------         MODULE        HANDLER
  C:0000H         SYMBOL        _ICE_DUMMY_
  D:0080H         PUBLIC        P0
  D:0090H         PUBLIC        P1
  D:00A0H         PUBLIC        P2
  D:00B0H         PUBLIC        P3
  C:6C06H         PUBLIC        clearFlag
  C:5A26H         PUBLIC        setDefaultParam
  D:00A8H         PUBLIC        IE
  C:2D97H         PUBLIC        checkAllParam
  D:00C8H         PUBLIC        T2CON1
  B:0080H.4       PUBLIC        P04
  C:6997H         PUBLIC        CheckTxPower
  C:67C9H         PUBLIC        isModuConstant
  C:7496H         PUBLIC        showButtonLed
  D:0098H         PUBLIC        SCON0
  D:00D8H         PUBLIC        ADCON
  D:00C0H         PUBLIC        IIC0CON
  C:7460H         PUBLIC        showLcdLed
  C:6D28H         PUBLIC        initHandler
  -------         PROC          INITHANDLER
  C:6D28H         LINE#         13
  C:6D28H         LINE#         14
  C:6D28H         LINE#         16
  C:6D38H         LINE#         17
  C:6D38H         LINE#         18
  C:6D3BH         LINE#         19
  C:6D42H         LINE#         20
  C:6D43H         LINE#         22
  C:6D43H         LINE#         24
  C:6D4CH         LINE#         25
  C:6D4FH         LINE#         26
  C:6D4FH         LINE#         27
  -------         ENDPROC       INITHANDLER
  -------         PROC          CLEARFLAG
  C:6C06H         LINE#         29
  C:6C06H         LINE#         30
  C:6C06H         LINE#         31
  C:6C0DH         LINE#         33
  C:6C14H         LINE#         34
  C:6C19H         LINE#         35
  C:6C1EH         LINE#         36
  C:6C25H         LINE#         37
  C:6C2FH         LINE#         38
  -------         ENDPROC       CLEARFLAG
  -------         PROC          SHOWLCDLED
  C:7460H         LINE#         44
  C:7460H         LINE#         45
  C:7460H         LINE#         46
  C:7463H         LINE#         47
  C:746EH         LINE#         48
BL51 BANKED LINKER/LOCATER V6.22                                                      06/02/2018  10:26:57  PAGE 78


  -------         ENDPROC       SHOWLCDLED
  -------         PROC          SHOWBUTTONLED
  C:7496H         LINE#         54
  C:7496H         LINE#         55
  C:7496H         LINE#         56
  C:749EH         LINE#         57
  -------         ENDPROC       SHOWBUTTONLED
  -------         PROC          ISMODUCONSTANT
  C:67C9H         LINE#         66
  C:67C9H         LINE#         67
  C:67C9H         LINE#         68
  C:67D0H         LINE#         69
  C:67D0H         LINE#         70
  C:67D5H         LINE#         71
  C:67D8H         LINE#         72
  C:67D8H         LINE#         73
  C:67E5H         LINE#         74
  C:67E5H         LINE#         75
  C:67EBH         LINE#         76
  C:67EDH         LINE#         77
  C:67EDH         LINE#         78
  C:67F4H         LINE#         79
  C:67F4H         LINE#         80
  C:67FDH         LINE#         81
  C:67FDH         LINE#         82
  C:6803H         LINE#         83
  C:6805H         LINE#         84
  C:6805H         LINE#         85
  C:6805H         LINE#         86
  C:6807H         LINE#         87
  -------         ENDPROC       ISMODUCONSTANT
  -------         PROC          SETDEFAULTPARAM
  C:5A26H         LINE#         94
  C:5A26H         LINE#         95
  C:5A26H         LINE#         96
  C:5A29H         LINE#         97
  C:5A2FH         LINE#         98
  C:5A33H         LINE#         99
  C:5A36H         LINE#         100
  C:5A38H         LINE#         101
  C:5A3EH         LINE#         102
  C:5A44H         LINE#         103
  C:5A49H         LINE#         104
  C:5A4EH         LINE#         105
  C:5A54H         LINE#         106
  C:5A5AH         LINE#         107
  C:5A60H         LINE#         108
  C:5A65H         LINE#         109
  C:5A69H         LINE#         110
  C:5A6DH         LINE#         111
  C:5A77H         LINE#         112
  C:5A7CH         LINE#         113
  C:5A7EH         LINE#         114
  C:5A81H         LINE#         115
  C:5A84H         LINE#         118
  C:5A89H         LINE#         119
  C:5A8FH         LINE#         120
BL51 BANKED LINKER/LOCATER V6.22                                                      06/02/2018  10:26:57  PAGE 79


  C:5A93H         LINE#         121
  C:5A95H         LINE#         123
  C:5A9DH         LINE#         124
  C:5AA2H         LINE#         130
  -------         ENDPROC       SETDEFAULTPARAM
  -------         PROC          CHECKALLPARAM
  C:2D97H         LINE#         136
  C:2D97H         LINE#         137
  C:2D97H         LINE#         139
  C:2D9DH         LINE#         140
  C:2DDAH         LINE#         141
  C:2DDAH         LINE#         142
  C:2DECH         LINE#         143
  C:2DFEH         LINE#         144
  C:2E11H         LINE#         145
  C:2E23H         LINE#         146
  C:2E35H         LINE#         147
  C:2E47H         LINE#         148
  C:2E59H         LINE#         149
  C:2E59H         LINE#         150
  C:2E59H         LINE#         151
  C:2E64H         LINE#         152
  C:2E6AH         LINE#         153
  C:2E6FH         LINE#         154
  C:2E6FH         LINE#         155
  C:2E71H         LINE#         156
  C:2E71H         LINE#         157
  C:2E71H         LINE#         158
  C:2E7CH         LINE#         159
  C:2E82H         LINE#         160
  C:2E87H         LINE#         161
  C:2E87H         LINE#         162
  C:2E89H         LINE#         163
  C:2E9AH         LINE#         164
  C:2EABH         LINE#         165
  C:2EBCH         LINE#         166
  C:2ECDH         LINE#         167
  C:2EDCH         LINE#         168
  C:2EDCH         LINE#         170
  C:2EEBH         LINE#         171
  C:2EF3H         LINE#         172
  C:2F08H         LINE#         175
  C:2F11H         LINE#         176
  C:2F2EH         LINE#         179
  C:2F3FH         LINE#         180
  C:2F3FH         LINE#         181
  C:2F47H         LINE#         182
  C:2F4BH         LINE#         183
  C:2F4BH         LINE#         185
  C:2F57H         LINE#         187
  C:2F63H         LINE#         189
  C:2F6FH         LINE#         191
  C:2F7AH         LINE#         192
  C:2F86H         LINE#         193
  C:2F92H         LINE#         194
  C:2FA3H         LINE#         195
  C:2FABH         LINE#         197
BL51 BANKED LINKER/LOCATER V6.22                                                      06/02/2018  10:26:57  PAGE 80


  C:2FCFH         LINE#         199
  C:2FDBH         LINE#         200
  C:2FE7H         LINE#         201
  C:2FEDH         LINE#         202
  C:2FF2H         LINE#         203
  C:2FF8H         LINE#         204
  C:2FFDH         LINE#         205
  C:3001H         LINE#         206
  C:3008H         LINE#         207
  C:300DH         LINE#         209
  -------         ENDPROC       CHECKALLPARAM
  -------         PROC          CHECKTXPOWER
  C:6997H         LINE#         211
  C:6997H         LINE#         212
  C:6997H         LINE#         213
  C:69A9H         LINE#         214
  C:69A9H         LINE#         215
  C:69ABH         LINE#         216
  C:69ACH         LINE#         217
  C:69BFH         LINE#         218
  C:69BFH         LINE#         219
  C:69C5H         LINE#         220
  C:69C6H         LINE#         221
  C:69CCH         LINE#         222
  -------         ENDPROC       CHECKTXPOWER
  -------         ENDMOD        HANDLER

  -------         MODULE        UART
  C:0000H         SYMBOL        _ICE_DUMMY_
  D:0080H         PUBLIC        P0
  D:0090H         PUBLIC        P1
  X:0166H         PUBLIC        recive
  D:00A0H         PUBLIC        P2
  D:00B0H         PUBLIC        P3
  C:4A2EH         PUBLIC        receiveRssi
  C:74A8H         PUBLIC        _uart0SendByte
  C:0003H         PUBLIC        _UART1SendByte
  B:00A8H.4       PUBLIC        ES
  D:00C8H         PUBLIC        T2CON1
  C:63A6H         PUBLIC        _isSendCmdOK
  B:0098H.0       PUBLIC        RI
  B:0098H.1       PUBLIC        TI
  X:0176H         PUBLIC        mTxLength
  X:0177H         PUBLIC        Param_Uart1
  C:7450H         PUBLIC        ClearUARTData
  X:0199H         PUBLIC        recivecount
  B:0090H.3       PUBLIC        P13
  B:0090H.4       PUBLIC        P14
  B:0090H.6       PUBLIC        P16
  C:6C30H         PUBLIC        analyseCMD
  C:46D6H         PUBLIC        Uart0
  X:019AH         PUBLIC        StopSpk
  D:0099H         PUBLIC        SBUF0
  D:00F2H         PUBLIC        SBUF1
  D:0098H         PUBLIC        SCON0
  D:00F1H         PUBLIC        SCON1
  X:019BH         PUBLIC        mReceivePackage
BL51 BANKED LINKER/LOCATER V6.22                                                      06/02/2018  10:26:57  PAGE 81


  D:00D8H         PUBLIC        ADCON
  D:00C0H         PUBLIC        IIC0CON
  C:1FB4H         PUBLIC        _sendCommand
  C:6808H         PUBLIC        GetSQSet
  C:7361H         PUBLIC        _uart0SendString
  C:71ACH         PUBLIC        _uart0SendData
  -------         PROC          RECEIVERSSI
  C:4A2EH         LINE#         36
  C:4A2EH         LINE#         37
  C:4A2EH         LINE#         38
  C:4A41H         LINE#         39
  C:4A41H         LINE#         41
  C:4A41H         LINE#         42
  C:4A68H         LINE#         43
  C:4A68H         LINE#         44
  C:4A6EH         LINE#         46
  C:4A6EH         LINE#         48
  C:4A76H         LINE#         49
  C:4A82H         LINE#         50
  C:4A82H         LINE#         51
  C:4A89H         LINE#         52
  C:4A90H         LINE#         54
  C:4A96H         LINE#         55
  C:4A9BH         LINE#         56
  C:4AB9H         LINE#         57
  C:4AB9H         LINE#         58
  C:4ABEH         LINE#         59
  C:4ABEH         LINE#         60
  C:4ACBH         LINE#         61
  C:4ACBH         LINE#         62
  C:4ACFH         LINE#         63
  C:4AD8H         LINE#         64
  C:4AD8H         LINE#         65
  C:4ADAH         LINE#         66
  C:4ADAH         LINE#         67
  C:4ADAH         LINE#         68
  C:4ADCH         LINE#         69
  C:4ADEH         LINE#         70
  C:4AE5H         LINE#         72
  C:4AFCH         LINE#         73
  C:4AFCH         LINE#         74
  C:4B01H         LINE#         75
  C:4B06H         LINE#         76
  C:4B0EH         LINE#         77
  C:4B13H         LINE#         78
  C:4B1BH         LINE#         79
  C:4B1BH         LINE#         80
  C:4B1CH         LINE#         82
  C:4B1CH         LINE#         83
  C:4B22H         LINE#         84
  C:4B28H         LINE#         85
  C:4B28H         LINE#         86
  C:4B2AH         LINE#         87
  C:4B31H         LINE#         88
  C:4B31H         LINE#         89
  C:4B33H         LINE#         90
  C:4B38H         LINE#         91
BL51 BANKED LINKER/LOCATER V6.22                                                      06/02/2018  10:26:57  PAGE 82


  C:4B3FH         LINE#         92
  C:4B3FH         LINE#         93
  -------         ENDPROC       RECEIVERSSI
  -------         PROC          GETSQSET
  C:6808H         LINE#         94
  C:6808H         LINE#         95
  C:6808H         LINE#         96
  C:680EH         LINE#         98
  C:6816H         LINE#         99
  C:6816H         LINE#         100
  C:681CH         LINE#         101
  C:681FH         LINE#         102
  C:6821H         LINE#         104
  C:6821H         LINE#         105
  C:6829H         LINE#         107
  C:6829H         LINE#         108
  C:6831H         LINE#         109
  C:6831H         LINE#         110
  C:6837H         LINE#         111
  C:683AH         LINE#         112
  C:683BH         LINE#         114
  C:683BH         LINE#         115
  C:6843H         LINE#         116
  C:6843H         LINE#         117
  -------         ENDPROC       GETSQSET
  -------         PROC          ANALYSECMD
  C:6C30H         LINE#         119
  C:6C30H         LINE#         120
  C:6C30H         LINE#         121
  C:6C44H         LINE#         122
  C:6C44H         LINE#         123
  C:6C44H         LINE#         124
  C:6C4BH         LINE#         125
  C:6C4BH         LINE#         126
  C:6C4FH         LINE#         127
  C:6C4FH         LINE#         128
  C:6C52H         LINE#         129
  C:6C53H         LINE#         130
  C:6C53H         LINE#         131
  C:6C59H         LINE#         132
  C:6C59H         LINE#         133
  C:6C59H         LINE#         134
  -------         ENDPROC       ANALYSECMD
  -------         PROC          UART0
  -------         DO            
  X:020EH         SYMBOL        dat
  X:020FH         SYMBOL        i
  -------         ENDDO         
  C:46D6H         LINE#         135
  C:46F3H         LINE#         137
  C:46F8H         LINE#         138
  C:46FAH         LINE#         140
  C:4700H         LINE#         141
  C:4700H         LINE#         143
  C:4700H         LINE#         144
  C:4702H         LINE#         145
  C:4708H         LINE#         146
BL51 BANKED LINKER/LOCATER V6.22                                                      06/02/2018  10:26:57  PAGE 83


  C:470DH         LINE#         147
  C:470DH         LINE#         148
  C:4713H         LINE#         149
  C:4716H         LINE#         150
  C:4716H         LINE#         152
  C:4724H         LINE#         153
  C:4724H         LINE#         154
  C:4724H         LINE#         155
  C:4724H         LINE#         156
  C:4734H         LINE#         157
  C:4738H         LINE#         158
  C:4738H         LINE#         159
  C:473EH         LINE#         160
  C:473EH         LINE#         161
  C:4741H         LINE#         162
  C:4746H         LINE#         163
  C:4748H         LINE#         165
  C:4748H         LINE#         166
  C:474EH         LINE#         167
  C:474EH         LINE#         168
  C:474EH         LINE#         170
  C:4754H         LINE#         172
  C:4754H         LINE#         173
  C:4757H         LINE#         175
  C:4757H         LINE#         176
  C:4757H         LINE#         177
  C:476CH         LINE#         178
  C:477AH         LINE#         179
  C:477AH         LINE#         180
  C:477FH         LINE#         181
  C:479DH         LINE#         182
  C:479DH         LINE#         183
  C:47B4H         LINE#         184
  C:47BAH         LINE#         185
  C:47C2H         LINE#         186
  C:47D1H         LINE#         187
  C:47D1H         LINE#         188
  C:47D4H         LINE#         189
  C:47D9H         LINE#         190
  C:47D9H         LINE#         191
  C:47D9H         LINE#         192
  C:47DFH         LINE#         193
  C:47DFH         LINE#         194
  C:47DFH         LINE#         195
  C:47DFH         LINE#         197
  -------         ENDPROC       UART0
  -------         PROC          _UART1SENDBYTE
  D:0007H         SYMBOL        dat
  C:0003H         LINE#         198
  C:0003H         LINE#         199
  C:0003H         LINE#         200
  C:0005H         LINE#         201
  C:000AH         LINE#         202
  -------         ENDPROC       _UART1SENDBYTE
  -------         PROC          _UART0SENDBYTE
  D:0007H         SYMBOL        dat
  C:74A8H         LINE#         204
BL51 BANKED LINKER/LOCATER V6.22                                                      06/02/2018  10:26:57  PAGE 84


  C:74A8H         LINE#         205
  C:74A8H         LINE#         206
  C:74AAH         LINE#         207
  C:74ADH         LINE#         208
  C:74AFH         LINE#         209
  -------         ENDPROC       _UART0SENDBYTE
  -------         PROC          _UART0SENDSTRING
  D:0001H         SYMBOL        p
  C:7361H         LINE#         210
  C:7361H         LINE#         211
  C:7361H         LINE#         212
  C:7363H         LINE#         213
  C:7369H         LINE#         214
  C:7369H         LINE#         215
  C:736CH         LINE#         216
  C:7373H         LINE#         217
  C:7375H         LINE#         218
  C:7377H         LINE#         219
  -------         ENDPROC       _UART0SENDSTRING
  -------         PROC          _UART0SENDDATA
  D:0001H         SYMBOL        p
  C:71ACH         LINE#         220
  C:71ACH         LINE#         221
  C:71ACH         LINE#         222
  C:71AEH         LINE#         223
  C:71B8H         LINE#         224
  C:71B8H         LINE#         225
  C:71BFH         LINE#         226
  C:71C6H         LINE#         227
  C:71C8H         LINE#         228
  C:71CAH         LINE#         229
  -------         ENDPROC       _UART0SENDDATA
  -------         PROC          _SENDCOMMAND
  D:0007H         SYMBOL        cmd
  -------         DO            
  X:0220H         SYMBOL        i
  X:0221H         SYMBOL        fre
  -------         ENDDO         
  C:1FB4H         LINE#         231
  C:1FB4H         LINE#         232
  C:1FB4H         LINE#         235
  C:1FB9H         LINE#         237
  C:2013H         LINE#         238
  C:2013H         LINE#         239
  C:2013H         LINE#         240
  C:2013H         LINE#         241
  C:2018H         LINE#         242
  C:201EH         LINE#         243
  C:201EH         LINE#         244
  C:2021H         LINE#         246
  C:2021H         LINE#         247
  C:2021H         LINE#         248
  C:2026H         LINE#         249
  C:202CH         LINE#         250
  C:202CH         LINE#         251
  C:202FH         LINE#         253
  C:202FH         LINE#         254
BL51 BANKED LINKER/LOCATER V6.22                                                      06/02/2018  10:26:57  PAGE 85


  C:202FH         LINE#         255
  C:2034H         LINE#         256
  C:203AH         LINE#         257
  C:203AH         LINE#         259
  C:203AH         LINE#         260
  C:203AH         LINE#         261
  C:2040H         LINE#         262
  C:2048H         LINE#         263
  C:2050H         LINE#         264
  C:2058H         LINE#         265
  C:2060H         LINE#         266
  C:2063H         LINE#         267
  C:2073H         LINE#         268
  C:2073H         LINE#         269
  C:208AH         LINE#         270
  C:2092H         LINE#         271
  C:2099H         LINE#         272
  C:209FH         LINE#         273
  C:209FH         LINE#         274
  C:20A2H         LINE#         276
  C:20A2H         LINE#         277
  C:20A2H         LINE#         278
  C:20A8H         LINE#         279
  C:20B0H         LINE#         280
  C:20B7H         LINE#         281
  C:20BDH         LINE#         282
  C:20BDH         LINE#         283
  C:20C0H         LINE#         285
  C:20C0H         LINE#         286
  C:20C0H         LINE#         287
  C:20C6H         LINE#         288
  C:20CEH         LINE#         289
  C:20D5H         LINE#         290
  C:20DBH         LINE#         291
  C:20DBH         LINE#         292
  C:20DEH         LINE#         294
  C:20DEH         LINE#         295
  C:20DEH         LINE#         296
  C:20E4H         LINE#         297
  C:20ECH         LINE#         298
  C:20F3H         LINE#         299
  C:20F9H         LINE#         300
  C:20F9H         LINE#         301
  C:20FCH         LINE#         303
  C:20FCH         LINE#         304
  C:20FCH         LINE#         305
  C:2102H         LINE#         306
  C:210AH         LINE#         307
  C:2111H         LINE#         308
  C:2117H         LINE#         309
  C:2117H         LINE#         310
  C:211AH         LINE#         312
  C:211AH         LINE#         313
  C:211AH         LINE#         314
  C:2120H         LINE#         315
  C:2128H         LINE#         316
  C:2130H         LINE#         317
BL51 BANKED LINKER/LOCATER V6.22                                                      06/02/2018  10:26:57  PAGE 86


  C:2133H         LINE#         318
  C:2143H         LINE#         319
  C:2143H         LINE#         320
  C:215AH         LINE#         321
  C:2162H         LINE#         322
  C:2169H         LINE#         323
  C:216FH         LINE#         324
  C:216FH         LINE#         325
  C:2172H         LINE#         326
  C:2172H         LINE#         327
  C:2178H         LINE#         328
  C:2180H         LINE#         329
  C:2184H         LINE#         330
  C:2187H         LINE#         331
  C:2197H         LINE#         332
  C:2197H         LINE#         333
  C:21AEH         LINE#         334
  C:21B6H         LINE#         335
  C:21BDH         LINE#         336
  C:21C3H         LINE#         337
  C:21C6H         LINE#         339
  C:21C6H         LINE#         340
  C:21C6H         LINE#         341
  C:21CCH         LINE#         342
  C:21D4H         LINE#         343
  C:21DBH         LINE#         344
  C:21E1H         LINE#         345
  C:21E1H         LINE#         346
  C:21E4H         LINE#         347
  C:21E4H         LINE#         348
  C:2205H         LINE#         349
  C:220BH         LINE#         350
  C:2217H         LINE#         351
  C:221CH         LINE#         352
  C:2234H         LINE#         353
  C:2251H         LINE#         354
  C:226EH         LINE#         355
  C:228BH         LINE#         356
  C:22A1H         LINE#         357
  C:22A4H         LINE#         358
  C:22B4H         LINE#         359
  C:22B4H         LINE#         360
  C:22CBH         LINE#         362
  C:22D3H         LINE#         363
  C:22DAH         LINE#         364
  C:22E0H         LINE#         365
  C:22E3H         LINE#         367
  C:22E3H         LINE#         368
  C:22E3H         LINE#         369
  C:22E9H         LINE#         370
  C:22F1H         LINE#         371
  C:22F9H         LINE#         372
  C:2301H         LINE#         373
  C:2309H         LINE#         374
  C:2311H         LINE#         375
  C:2319H         LINE#         376
  C:2321H         LINE#         377
BL51 BANKED LINKER/LOCATER V6.22                                                      06/02/2018  10:26:57  PAGE 87


  C:2329H         LINE#         378
  C:2331H         LINE#         380
  C:233DH         LINE#         381
  C:2342H         LINE#         382
  C:235AH         LINE#         383
  C:237CH         LINE#         384
  C:239FH         LINE#         385
  C:23B5H         LINE#         386
  C:23C8H         LINE#         388
  C:23CBH         LINE#         389
  C:23DBH         LINE#         390
  C:23DBH         LINE#         391
  C:23F2H         LINE#         392
  C:23FAH         LINE#         393
  C:2401H         LINE#         394
  C:2407H         LINE#         395
  C:2407H         LINE#         396
  C:240AH         LINE#         398
  C:240AH         LINE#         399
  C:240AH         LINE#         400
  C:240FH         LINE#         401
  C:2415H         LINE#         402
  C:2415H         LINE#         403
  C:2418H         LINE#         405
  C:2418H         LINE#         406
  C:2418H         LINE#         407
  C:241EH         LINE#         408
  C:2426H         LINE#         409
  C:242DH         LINE#         410
  C:2433H         LINE#         411
  C:2433H         LINE#         412
  C:2436H         LINE#         414
  C:2436H         LINE#         415
  C:2436H         LINE#         416
  C:243BH         LINE#         417
  C:2441H         LINE#         418
  C:2441H         LINE#         419
  C:2444H         LINE#         421
  C:2444H         LINE#         422
  C:2444H         LINE#         423
  C:244AH         LINE#         424
  C:2452H         LINE#         425
  C:2454H         LINE#         426
  C:245AH         LINE#         427
  C:245AH         LINE#         428
  C:245DH         LINE#         429
  C:245DH         LINE#         430
  C:2463H         LINE#         431
  C:246BH         LINE#         432
  C:246DH         LINE#         433
  C:246DH         LINE#         434
  C:2480H         LINE#         435
  C:2489H         LINE#         436
  C:248BH         LINE#         438
  C:248BH         LINE#         439
  C:249EH         LINE#         440
  C:24A7H         LINE#         441
BL51 BANKED LINKER/LOCATER V6.22                                                      06/02/2018  10:26:57  PAGE 88


  C:24A7H         LINE#         442
  C:24ACH         LINE#         443
  C:24BCH         LINE#         444
  C:24BCH         LINE#         445
  C:24D3H         LINE#         446
  C:24DBH         LINE#         447
  C:24E2H         LINE#         448
  C:24E8H         LINE#         449
  C:24EAH         LINE#         450
  C:24EAH         LINE#         451
  C:24EFH         LINE#         452
  C:24F5H         LINE#         453
  C:24F7H         LINE#         454
  C:24F7H         LINE#         455
  C:24F7H         LINE#         456
  C:24FCH         LINE#         457
  C:24FCH         LINE#         458
  C:24FCH         LINE#         461
  C:24FCH         LINE#         463
  C:2505H         LINE#         465
  -------         ENDPROC       _SENDCOMMAND
  -------         PROC          _ISSENDCMDOK
  X:021EH         SYMBOL        cmd
  -------         DO            
  X:021FH         SYMBOL        i
  -------         ENDDO         
  C:63A6H         LINE#         468
  C:63ABH         LINE#         469
  C:63ABH         LINE#         471
  C:63AEH         LINE#         472
  C:63AEH         LINE#         473
  C:63B4H         LINE#         474
  C:63BCH         LINE#         475
  C:63CAH         LINE#         477
  C:63D1H         LINE#         478
  C:63DBH         LINE#         480
  C:63E7H         LINE#         481
  C:63EDH         LINE#         483
  C:63EFH         LINE#         484
  -------         ENDPROC       _ISSENDCMDOK
  -------         PROC          CLEARUARTDATA
  C:7450H         LINE#         489
  C:7450H         LINE#         490
  C:7450H         LINE#         492
  C:7457H         LINE#         493
  C:745BH         LINE#         494
  C:745FH         LINE#         496
  -------         ENDPROC       CLEARUARTDATA
  -------         ENDMOD        UART

  -------         MODULE        LCD
  C:0000H         SYMBOL        _ICE_DUMMY_
  D:0080H         PUBLIC        P0
  D:0090H         PUBLIC        P1
  D:00A0H         PUBLIC        P2
  C:5AA3H         PUBLIC        ShowFreCalSet
  D:00B0H         PUBLIC        P3
BL51 BANKED LINKER/LOCATER V6.22                                                      06/02/2018  10:26:57  PAGE 89


  C:729CH         PUBLIC        initLCD
  C:712DH         PUBLIC        wriless_button
  C:7301H         PUBLIC        ShowTable
  C:6A02H         PUBLIC        ShowSpeakSwitch
  C:64BBH         PUBLIC        CheckHitPower
  D:00C8H         PUBLIC        T2CON1
  C:5C10H         PUBLIC        RX_STRENGTH_SHOW
  C:0D58H         PUBLIC        Twinkle_Control
  C:6960H         PUBLIC        ShowFB
  C:4EFBH         PUBLIC        ShowFC
  C:4B40H         PUBLIC        ShowSQReSet
  B:0090H.0       PUBLIC        P10
  B:0090H.1       PUBLIC        P11
  B:0090H.2       PUBLIC        P12
  B:0080H.4       PUBLIC        P04
  X:0290H         PUBLIC        LCD_Twinkle_tag
  C:6929H         PUBLIC        ShowBP
  B:0090H.6       PUBLIC        P16
  X:0291H         PUBLIC        LCD_twinkle_Show
  C:68F1H         PUBLIC        ShowRfg
  C:6C84H         PUBLIC        ShowAsq
  C:7280H         PUBLIC        setContry
  C:6AF7H         PUBLIC        playButtonTone
  C:5F1AH         PUBLIC        LoadLCDBeep
  X:0292H         PUBLIC        ButtonLED
  C:714DH         PUBLIC        ShowVol
  C:74B7H         PUBLIC        ShowHitPower
  C:327CH         PUBLIC        ShowChannel
  D:0098H         PUBLIC        SCON0
  C:747DH         PUBLIC        lcdShowError
  D:00D8H         PUBLIC        ADCON
  D:00C0H         PUBLIC        IIC0CON
  C:6C5AH         PUBLIC        ShowSq
  C:000EH         PUBLIC        ShowFactorySeting
  C:6607H         PUBLIC        ShowSQSet
  -------         PROC          LOADLCDBEEP
  C:5F1AH         LINE#         24
  C:5F1AH         LINE#         25
  C:5F1AH         LINE#         26
  C:5F42H         LINE#         27
  C:5F42H         LINE#         28
  C:5F42H         LINE#         29
  C:5F44H         LINE#         30
  C:5F46H         LINE#         31
  C:5F48H         LINE#         32
  C:5F49H         LINE#         33
  C:5F49H         LINE#         34
  C:5F4BH         LINE#         35
  C:5F4DH         LINE#         36
  C:5F4FH         LINE#         37
  C:5F50H         LINE#         38
  C:5F50H         LINE#         39
  C:5F52H         LINE#         40
  C:5F54H         LINE#         41
  C:5F56H         LINE#         42
  C:5F57H         LINE#         43
  C:5F57H         LINE#         44
BL51 BANKED LINKER/LOCATER V6.22                                                      06/02/2018  10:26:57  PAGE 90


  C:5F59H         LINE#         45
  C:5F5BH         LINE#         46
  C:5F5DH         LINE#         47
  C:5F5EH         LINE#         48
  C:5F5EH         LINE#         49
  C:5F60H         LINE#         50
  C:5F62H         LINE#         51
  C:5F64H         LINE#         52
  C:5F65H         LINE#         53
  C:5F65H         LINE#         54
  C:5F67H         LINE#         55
  C:5F69H         LINE#         56
  C:5F6BH         LINE#         57
  C:5F6CH         LINE#         58
  C:5F6CH         LINE#         59
  C:5F6EH         LINE#         60
  C:5F70H         LINE#         61
  C:5F72H         LINE#         62
  C:5F73H         LINE#         63
  C:5F73H         LINE#         64
  C:5F75H         LINE#         65
  C:5F77H         LINE#         66
  C:5F79H         LINE#         67
  C:5F79H         LINE#         68
  C:5F79H         LINE#         69
  C:5F79H         LINE#         70
  C:5F79H         LINE#         72
  -------         ENDPROC       LOADLCDBEEP
  -------         PROC          RX_STRENGTH_SHOW
  C:5C10H         LINE#         73
  C:5C10H         LINE#         74
  C:5C10H         LINE#         75
  C:5C2DH         LINE#         76
  C:5C2DH         LINE#         78
  C:5C38H         LINE#         79
  C:5C3EH         LINE#         80
  C:5C4FH         LINE#         81
  C:5C60H         LINE#         82
  C:5C71H         LINE#         83
  C:5C82H         LINE#         84
  C:5C87H         LINE#         87
  C:5C87H         LINE#         89
  -------         ENDPROC       RX_STRENGTH_SHOW
  -------         PROC          SHOWCHANNEL
  C:327CH         LINE#         95
  C:327CH         LINE#         96
  C:327CH         LINE#         97
  C:327FH         LINE#         98
  C:3282H         LINE#         99
  C:3289H         LINE#         100
  C:3289H         LINE#         101
  C:328EH         LINE#         102
  C:3293H         LINE#         103
  C:3295H         LINE#         105
  C:3295H         LINE#         106
  C:329AH         LINE#         107
  C:329FH         LINE#         108
BL51 BANKED LINKER/LOCATER V6.22                                                      06/02/2018  10:26:57  PAGE 91


  C:329FH         LINE#         109
  C:32ACH         LINE#         110
  C:32ACH         LINE#         111
  C:32B8H         LINE#         112
  C:32C5H         LINE#         113
  C:32CFH         LINE#         114
  C:32D2H         LINE#         115
  C:32DDH         LINE#         116
  C:32DDH         LINE#         117
  C:3316H         LINE#         118
  C:3316H         LINE#         119
  C:3323H         LINE#         120
  C:332FH         LINE#         121
  C:333BH         LINE#         122
  C:3347H         LINE#         123
  C:3353H         LINE#         124
  C:335FH         LINE#         125
  C:336BH         LINE#         126
  C:3377H         LINE#         127
  C:3383H         LINE#         128
  C:338FH         LINE#         129
  C:338FH         LINE#         130
  C:3391H         LINE#         132
  C:3391H         LINE#         133
  C:339DH         LINE#         134
  C:33AAH         LINE#         135
  C:33AAH         LINE#         136
  C:33B5H         LINE#         138
  C:33C0H         LINE#         139
  C:33CBH         LINE#         141
  C:33D8H         LINE#         142
  C:33DDH         LINE#         143
  C:33E9H         LINE#         144
  C:33EEH         LINE#         145
  C:33FCH         LINE#         146
  C:3401H         LINE#         147
  C:340EH         LINE#         148
  C:3413H         LINE#         149
  C:343BH         LINE#         150
  C:343BH         LINE#         151
  C:343BH         LINE#         152
  C:343DH         LINE#         153
  C:343FH         LINE#         154
  C:3441H         LINE#         155
  C:3443H         LINE#         156
  C:3443H         LINE#         157
  C:3445H         LINE#         158
  C:3447H         LINE#         159
  C:3449H         LINE#         160
  C:344BH         LINE#         161
  C:344BH         LINE#         162
  C:344DH         LINE#         163
  C:344FH         LINE#         164
  C:3451H         LINE#         165
  C:3453H         LINE#         166
  C:3453H         LINE#         167
  C:3455H         LINE#         168
BL51 BANKED LINKER/LOCATER V6.22                                                      06/02/2018  10:26:57  PAGE 92


  C:3457H         LINE#         169
  C:3459H         LINE#         170
  C:345BH         LINE#         171
  C:345BH         LINE#         172
  C:345DH         LINE#         173
  C:345FH         LINE#         174
  C:3461H         LINE#         175
  C:3463H         LINE#         176
  C:3463H         LINE#         177
  C:3465H         LINE#         178
  C:3467H         LINE#         179
  C:3469H         LINE#         180
  C:346BH         LINE#         181
  C:346BH         LINE#         182
  C:346DH         LINE#         183
  C:346FH         LINE#         184
  C:3471H         LINE#         185
  C:3473H         LINE#         186
  C:3473H         LINE#         187
  C:3475H         LINE#         188
  C:3477H         LINE#         189
  C:3479H         LINE#         190
  C:3479H         LINE#         191
  C:3479H         LINE#         192
  C:3479H         LINE#         193
  C:3479H         LINE#         194
  C:347CH         LINE#         195
  C:347FH         LINE#         196
  -------         ENDPROC       SHOWCHANNEL
  -------         PROC          SHOWFRECALSET
  C:5AA3H         LINE#         202
  C:5AA3H         LINE#         203
  C:5AA3H         LINE#         204
  C:5AA8H         LINE#         205
  C:5AADH         LINE#         206
  C:5AB6H         LINE#         207
  C:5AB6H         LINE#         208
  C:5ABBH         LINE#         209
  C:5AD3H         LINE#         210
  C:5AEDH         LINE#         211
  C:5AEEH         LINE#         213
  C:5AEEH         LINE#         214
  C:5AF3H         LINE#         215
  C:5B08H         LINE#         216
  C:5B1DH         LINE#         217
  C:5B1DH         LINE#         219
  -------         ENDPROC       SHOWFRECALSET
  -------         PROC          SHOWSQRESET
  C:4B40H         LINE#         226
  C:4B40H         LINE#         227
  C:4B40H         LINE#         228
  C:4B43H         LINE#         229
  C:4B49H         LINE#         230
  C:4B49H         LINE#         231
  C:4B53H         LINE#         232
  C:4B53H         LINE#         233
  C:4B5EH         LINE#         234
BL51 BANKED LINKER/LOCATER V6.22                                                      06/02/2018  10:26:57  PAGE 93


  C:4B6EH         LINE#         235
  C:4B70H         LINE#         237
  C:4B70H         LINE#         238
  C:4B81H         LINE#         239
  C:4B93H         LINE#         240
  C:4B93H         LINE#         241
  C:4B9EH         LINE#         242
  C:4B9EH         LINE#         243
  C:4BA3H         LINE#         244
  C:4BA5H         LINE#         246
  C:4BA5H         LINE#         247
  C:4BAAH         LINE#         248
  C:4BAAH         LINE#         249
  C:4BACH         LINE#         251
  C:4BACH         LINE#         252
  C:4BB8H         LINE#         253
  C:4BB8H         LINE#         254
  C:4BC3H         LINE#         255
  C:4BD3H         LINE#         256
  C:4BD5H         LINE#         258
  C:4BD5H         LINE#         259
  C:4BE6H         LINE#         260
  C:4BF8H         LINE#         261
  C:4BF8H         LINE#         262
  C:4C03H         LINE#         263
  C:4C03H         LINE#         264
  C:4C08H         LINE#         265
  C:4C0AH         LINE#         267
  C:4C0AH         LINE#         268
  C:4C0FH         LINE#         269
  C:4C0FH         LINE#         271
  C:4C0FH         LINE#         273
  C:4C15H         LINE#         274
  C:4C15H         LINE#         275
  C:4C21H         LINE#         276
  C:4C2EH         LINE#         277
  C:4C30H         LINE#         279
  C:4C30H         LINE#         280
  C:4C3CH         LINE#         281
  C:4C49H         LINE#         282
  C:4C4EH         LINE#         285
  C:4C4EH         LINE#         287
  C:4C51H         LINE#         288
  -------         ENDPROC       SHOWSQRESET
  -------         PROC          TWINKLE_CONTROL
  C:0D58H         LINE#         294
  C:0D58H         LINE#         295
  C:0D58H         LINE#         296
  C:0D5EH         LINE#         297
  C:0D5EH         LINE#         298
  C:0D67H         LINE#         299
  C:0D67H         LINE#         300
  C:0D69H         LINE#         301
  C:0D6CH         LINE#         302
  C:0D6CH         LINE#         303
  C:0D72H         LINE#         304
  C:0D72H         LINE#         305
BL51 BANKED LINKER/LOCATER V6.22                                                      06/02/2018  10:26:57  PAGE 94


  C:0D74H         LINE#         306
  C:0D74H         LINE#         307
  C:0D76H         LINE#         308
  C:0D78H         LINE#         309
  C:0DA8H         LINE#         310
  C:0DA8H         LINE#         311
  C:0DA8H         LINE#         312
  C:0DAEH         LINE#         313
  C:0DAEH         LINE#         314
  C:0DBCH         LINE#         316
  C:0DBCH         LINE#         317
  C:0DC2H         LINE#         318
  C:0DC2H         LINE#         319
  C:0DC7H         LINE#         320
  C:0DCDH         LINE#         321
  C:0DCFH         LINE#         323
  C:0DCFH         LINE#         324
  C:0DD4H         LINE#         325
  C:0DD9H         LINE#         326
  C:0DD9H         LINE#         327
  C:0DDFH         LINE#         328
  C:0DDFH         LINE#         329
  C:0DDFH         LINE#         330
  C:0DE2H         LINE#         331
  C:0DE3H         LINE#         332
  C:0DE3H         LINE#         333
  C:0DF1H         LINE#         335
  C:0DF1H         LINE#         336
  C:0DF7H         LINE#         337
  C:0DF7H         LINE#         338
  C:0DFCH         LINE#         339
  C:0E01H         LINE#         340
  C:0E07H         LINE#         341
  C:0E09H         LINE#         343
  C:0E09H         LINE#         344
  C:0E1EH         LINE#         345
  C:0E35H         LINE#         346
  C:0E3AH         LINE#         347
  C:0E3AH         LINE#         348
  C:0E40H         LINE#         349
  C:0E40H         LINE#         350
  C:0E43H         LINE#         351
  C:0E44H         LINE#         352
  C:0E44H         LINE#         354
  C:0E4AH         LINE#         355
  C:0E4AH         LINE#         356
  C:0E59H         LINE#         358
  C:0E59H         LINE#         359
  C:0E5FH         LINE#         360
  C:0E5FH         LINE#         361
  C:0E64H         LINE#         362
  C:0E69H         LINE#         363
  C:0E6FH         LINE#         364
  C:0E71H         LINE#         366
  C:0E71H         LINE#         367
  C:0E7DH         LINE#         368
  C:0E8AH         LINE#         369
BL51 BANKED LINKER/LOCATER V6.22                                                      06/02/2018  10:26:57  PAGE 95


  C:0E8FH         LINE#         370
  C:0E8FH         LINE#         371
  C:0E95H         LINE#         372
  C:0E95H         LINE#         373
  C:0E97H         LINE#         375
  C:0E97H         LINE#         376
  C:0EA5H         LINE#         378
  C:0EA5H         LINE#         379
  C:0EABH         LINE#         380
  C:0EABH         LINE#         381
  C:0EB0H         LINE#         382
  C:0EB5H         LINE#         383
  C:0EBBH         LINE#         384
  C:0EBDH         LINE#         386
  C:0EBDH         LINE#         387
  C:0EC9H         LINE#         388
  C:0ED6H         LINE#         389
  C:0EDBH         LINE#         390
  C:0EDBH         LINE#         391
  C:0EE1H         LINE#         392
  C:0EE1H         LINE#         393
  C:0EE1H         LINE#         394
  C:0EE4H         LINE#         395
  C:0EE5H         LINE#         396
  C:0EE5H         LINE#         397
  C:0EEAH         LINE#         398
  C:0EEDH         LINE#         399
  C:0EEEH         LINE#         400
  C:0EEEH         LINE#         401
  C:0EF9H         LINE#         402
  C:0EF9H         LINE#         403
  C:0F08H         LINE#         405
  C:0F08H         LINE#         406
  C:0F0EH         LINE#         407
  C:0F0EH         LINE#         408
  C:0F13H         LINE#         409
  C:0F18H         LINE#         410
  C:0F1EH         LINE#         411
  C:0F21H         LINE#         413
  C:0F21H         LINE#         414
  C:0F2CH         LINE#         415
  C:0F2CH         LINE#         416
  C:0F65H         LINE#         417
  C:0F65H         LINE#         418
  C:0F72H         LINE#         419
  C:0F7EH         LINE#         420
  C:0F8AH         LINE#         421
  C:0F96H         LINE#         422
  C:0FA2H         LINE#         423
  C:0FAEH         LINE#         424
  C:0FBAH         LINE#         425
  C:0FC6H         LINE#         426
  C:0FD2H         LINE#         427
  C:0FDEH         LINE#         428
  C:0FDEH         LINE#         429
  C:0FE0H         LINE#         431
  C:0FE0H         LINE#         432
BL51 BANKED LINKER/LOCATER V6.22                                                      06/02/2018  10:26:57  PAGE 96


  C:0FECH         LINE#         433
  C:0FF9H         LINE#         434
  C:0FF9H         LINE#         435
  C:0FFEH         LINE#         436
  C:0FFEH         LINE#         437
  C:1004H         LINE#         438
  C:1004H         LINE#         439
  C:1004H         LINE#         440
  C:1009H         LINE#         441
  C:100CH         LINE#         442
  C:100DH         LINE#         443
  C:100DH         LINE#         445
  C:101AH         LINE#         447
  C:101AH         LINE#         448
  C:1020H         LINE#         449
  C:1020H         LINE#         450
  C:1025H         LINE#         451
  C:102AH         LINE#         452
  C:1030H         LINE#         453
  C:1032H         LINE#         455
  C:1032H         LINE#         456
  C:103EH         LINE#         457
  C:104BH         LINE#         458
  C:1050H         LINE#         459
  C:1050H         LINE#         460
  C:1056H         LINE#         461
  C:1056H         LINE#         463
  C:1057H         LINE#         464
  C:1057H         LINE#         466
  C:106EH         LINE#         467
  C:106EH         LINE#         468
  C:106EH         LINE#         469
  C:107CH         LINE#         471
  C:107CH         LINE#         472
  C:1082H         LINE#         473
  C:1082H         LINE#         474
  C:1087H         LINE#         475
  C:108CH         LINE#         476
  C:1092H         LINE#         477
  C:1094H         LINE#         479
  C:1094H         LINE#         480
  C:109AH         LINE#         481
  C:109AH         LINE#         482
  C:10A6H         LINE#         483
  C:10B3H         LINE#         485
  C:10B5H         LINE#         487
  C:10B5H         LINE#         488
  C:10C1H         LINE#         489
  C:10CEH         LINE#         490
  C:10CEH         LINE#         491
  C:10D3H         LINE#         492
  C:10D3H         LINE#         493
  C:10D9H         LINE#         494
  C:10D9H         LINE#         495
  C:10DFH         LINE#         496
  C:10DFH         LINE#         497
  C:10E9H         LINE#         498
BL51 BANKED LINKER/LOCATER V6.22                                                      06/02/2018  10:26:57  PAGE 97


  C:10E9H         LINE#         499
  C:10F4H         LINE#         500
  C:1104H         LINE#         501
  C:1106H         LINE#         503
  C:1106H         LINE#         504
  C:1117H         LINE#         505
  C:1129H         LINE#         506
  C:1129H         LINE#         507
  C:1134H         LINE#         508
  C:1134H         LINE#         509
  C:1139H         LINE#         510
  C:113CH         LINE#         512
  C:113CH         LINE#         513
  C:1141H         LINE#         514
  C:1141H         LINE#         515
  C:1143H         LINE#         517
  C:1143H         LINE#         518
  C:114FH         LINE#         519
  C:114FH         LINE#         520
  C:115AH         LINE#         521
  C:116AH         LINE#         522
  C:116CH         LINE#         524
  C:116CH         LINE#         525
  C:117DH         LINE#         526
  C:118FH         LINE#         527
  C:118FH         LINE#         529
  C:11B2H         LINE#         530
  C:11B2H         LINE#         531
  C:11B7H         LINE#         532
  C:11B9H         LINE#         534
  C:11B9H         LINE#         535
  C:11BEH         LINE#         536
  C:11BEH         LINE#         537
  C:11BEH         LINE#         538
  C:11C7H         LINE#         539
  C:11C7H         LINE#         540
  C:11C7H         LINE#         542
  C:11C7H         LINE#         543
  C:11CCH         LINE#         546
  C:11CCH         LINE#         547
  C:11CDH         LINE#         548
  C:11CDH         LINE#         549
  C:11DCH         LINE#         551
  C:11DCH         LINE#         552
  C:11E2H         LINE#         553
  C:11E2H         LINE#         554
  C:1205H         LINE#         555
  C:1205H         LINE#         556
  C:120AH         LINE#         557
  C:120CH         LINE#         559
  C:120CH         LINE#         560
  C:1211H         LINE#         561
  C:1211H         LINE#         562
  C:1217H         LINE#         563
  C:121AH         LINE#         565
  C:121AH         LINE#         566
  C:1220H         LINE#         567
BL51 BANKED LINKER/LOCATER V6.22                                                      06/02/2018  10:26:57  PAGE 98


  C:1220H         LINE#         569
  C:122AH         LINE#         570
  C:122AH         LINE#         571
  C:1235H         LINE#         572
  C:1245H         LINE#         573
  C:1247H         LINE#         575
  C:1247H         LINE#         576
  C:1258H         LINE#         577
  C:126AH         LINE#         578
  C:126AH         LINE#         579
  C:1275H         LINE#         580
  C:1275H         LINE#         581
  C:127AH         LINE#         582
  C:127CH         LINE#         584
  C:127CH         LINE#         585
  C:1281H         LINE#         586
  C:1281H         LINE#         587
  C:1283H         LINE#         589
  C:1283H         LINE#         590
  C:128FH         LINE#         591
  C:128FH         LINE#         592
  C:129AH         LINE#         593
  C:12AAH         LINE#         594
  C:12ACH         LINE#         596
  C:12ACH         LINE#         597
  C:12BDH         LINE#         598
  C:12CFH         LINE#         599
  C:12CFH         LINE#         600
  C:12DAH         LINE#         601
  C:12DAH         LINE#         602
  C:12DFH         LINE#         603
  C:12E1H         LINE#         605
  C:12E1H         LINE#         606
  C:12E6H         LINE#         607
  C:12E6H         LINE#         608
  C:12E6H         LINE#         609
  C:12EBH         LINE#         610
  C:12EBH         LINE#         611
  C:12F1H         LINE#         612
  C:12F1H         LINE#         614
  C:12F7H         LINE#         615
  C:12F7H         LINE#         616
  C:1303H         LINE#         617
  C:1310H         LINE#         619
  C:1311H         LINE#         621
  C:1311H         LINE#         622
  C:131DH         LINE#         623
  C:132AH         LINE#         624
  C:132FH         LINE#         625
  C:132FH         LINE#         627
  C:1330H         LINE#         628
  C:1330H         LINE#         629
  C:133DH         LINE#         631
  C:133DH         LINE#         632
  C:1343H         LINE#         633
  C:1343H         LINE#         634
  C:1349H         LINE#         635
BL51 BANKED LINKER/LOCATER V6.22                                                      06/02/2018  10:26:57  PAGE 99


  C:1349H         LINE#         636
  C:134EH         LINE#         637
  C:1350H         LINE#         639
  C:1350H         LINE#         640
  C:1355H         LINE#         641
  C:1355H         LINE#         642
  C:135AH         LINE#         643
  C:135FH         LINE#         644
  C:1365H         LINE#         645
  C:1368H         LINE#         647
  C:1368H         LINE#         648
  C:136EH         LINE#         649
  C:136EH         LINE#         650
  C:1378H         LINE#         651
  C:1378H         LINE#         652
  C:1383H         LINE#         653
  C:1393H         LINE#         654
  C:1395H         LINE#         656
  C:1395H         LINE#         657
  C:13A6H         LINE#         658
  C:13B8H         LINE#         659
  C:13B8H         LINE#         660
  C:13C3H         LINE#         661
  C:13C3H         LINE#         662
  C:13C8H         LINE#         663
  C:13CAH         LINE#         665
  C:13CAH         LINE#         666
  C:13CFH         LINE#         667
  C:13CFH         LINE#         668
  C:13D1H         LINE#         670
  C:13D1H         LINE#         671
  C:13DDH         LINE#         672
  C:13DDH         LINE#         673
  C:13E8H         LINE#         674
  C:13F8H         LINE#         675
  C:13FAH         LINE#         677
  C:13FAH         LINE#         678
  C:140BH         LINE#         679
  C:141DH         LINE#         680
  C:141DH         LINE#         681
  C:1428H         LINE#         682
  C:1428H         LINE#         683
  C:142DH         LINE#         684
  C:142FH         LINE#         686
  C:142FH         LINE#         687
  C:1434H         LINE#         688
  C:1434H         LINE#         689
  C:1434H         LINE#         690
  C:1434H         LINE#         691
  C:1434H         LINE#         693
  C:1434H         LINE#         695
  C:1434H         LINE#         697
  C:1434H         LINE#         698
  C:1439H         LINE#         699
  C:1439H         LINE#         700
  C:143FH         LINE#         701
  C:143FH         LINE#         703
BL51 BANKED LINKER/LOCATER V6.22                                                      06/02/2018  10:26:57  PAGE 100


  C:143FH         LINE#         704
  C:143FH         LINE#         705
  C:143FH         LINE#         706
  C:143FH         LINE#         707
  C:143FH         LINE#         708
  C:143FH         LINE#         710
  -------         ENDPROC       TWINKLE_CONTROL
  -------         PROC          WRILESS_BUTTON
  C:712DH         LINE#         712
  C:712DH         LINE#         713
  C:712DH         LINE#         714
  C:7133H         LINE#         715
  C:7133H         LINE#         716
  C:713CH         LINE#         717
  C:713CH         LINE#         718
  C:713EH         LINE#         719
  C:7141H         LINE#         720
  C:7141H         LINE#         721
  C:7147H         LINE#         722
  C:7147H         LINE#         723
  C:7149H         LINE#         724
  C:7149H         LINE#         725
  C:714AH         LINE#         726
  C:714CH         LINE#         727
  -------         ENDPROC       WRILESS_BUTTON
  -------         PROC          SHOWVOL
  C:714DH         LINE#         734
  C:714DH         LINE#         735
  C:714DH         LINE#         736
  C:7150H         LINE#         737
  C:715CH         LINE#         738
  C:7169H         LINE#         739
  C:716CH         LINE#         740
  -------         ENDPROC       SHOWVOL
  -------         PROC          SHOWRFG
  C:68F1H         LINE#         746
  C:68F1H         LINE#         747
  C:68F1H         LINE#         748
  C:68F4H         LINE#         749
  C:6909H         LINE#         750
  C:6920H         LINE#         751
  C:6925H         LINE#         752
  C:6928H         LINE#         753
  -------         ENDPROC       SHOWRFG
  -------         PROC          SHOWSPEAKSWITCH
  C:6A02H         LINE#         759
  C:6A02H         LINE#         760
  C:6A02H         LINE#         761
  C:6A05H         LINE#         762
  C:6A0AH         LINE#         763
  C:6A0FH         LINE#         764
  C:6A16H         LINE#         765
  C:6A16H         LINE#         766
  C:6A1BH         LINE#         767
  C:6A20H         LINE#         768
  C:6A22H         LINE#         770
  C:6A22H         LINE#         771
BL51 BANKED LINKER/LOCATER V6.22                                                      06/02/2018  10:26:57  PAGE 101


  C:6A27H         LINE#         772
  C:6A2CH         LINE#         773
  C:6A31H         LINE#         774
  C:6A31H         LINE#         775
  C:6A34H         LINE#         776
  -------         ENDPROC       SHOWSPEAKSWITCH
  -------         PROC          SHOWSQ
  C:6C5AH         LINE#         783
  C:6C5AH         LINE#         784
  C:6C5AH         LINE#         785
  C:6C5DH         LINE#         786
  C:6C69H         LINE#         787
  C:6C76H         LINE#         788
  C:6C7BH         LINE#         789
  C:6C80H         LINE#         790
  C:6C83H         LINE#         791
  -------         ENDPROC       SHOWSQ
  -------         PROC          SHOWASQ
  C:6C84H         LINE#         797
  C:6C84H         LINE#         798
  C:6C84H         LINE#         799
  C:6C87H         LINE#         800
  C:6C93H         LINE#         801
  C:6CA0H         LINE#         802
  C:6CA5H         LINE#         803
  C:6CAAH         LINE#         804
  C:6CADH         LINE#         805
  -------         ENDPROC       SHOWASQ
  -------         PROC          SHOWBP
  C:6929H         LINE#         811
  C:6929H         LINE#         812
  C:6929H         LINE#         813
  C:692CH         LINE#         814
  C:6931H         LINE#         815
  C:6936H         LINE#         816
  C:693CH         LINE#         817
  C:693CH         LINE#         818
  C:6941H         LINE#         819
  C:6946H         LINE#         820
  C:694BH         LINE#         821
  C:694DH         LINE#         823
  C:694DH         LINE#         824
  C:6952H         LINE#         825
  C:6957H         LINE#         826
  C:695CH         LINE#         827
  C:695CH         LINE#         828
  C:695FH         LINE#         829
  -------         ENDPROC       SHOWBP
  -------         PROC          SHOWFB
  C:6960H         LINE#         835
  C:6960H         LINE#         836
  C:6960H         LINE#         837
  C:6963H         LINE#         838
  C:6968H         LINE#         839
  C:696DH         LINE#         840
  C:6973H         LINE#         841
  C:6973H         LINE#         842
BL51 BANKED LINKER/LOCATER V6.22                                                      06/02/2018  10:26:57  PAGE 102


  C:6978H         LINE#         843
  C:697DH         LINE#         844
  C:6982H         LINE#         845
  C:6984H         LINE#         847
  C:6984H         LINE#         848
  C:6989H         LINE#         849
  C:698EH         LINE#         850
  C:6993H         LINE#         851
  C:6993H         LINE#         852
  C:6996H         LINE#         853
  -------         ENDPROC       SHOWFB
  -------         PROC          SHOWFC
  C:4EFBH         LINE#         859
  C:4EFBH         LINE#         860
  C:4EFBH         LINE#         861
  C:4EFEH         LINE#         862
  C:4F03H         LINE#         863
  C:4F08H         LINE#         864
  C:4F30H         LINE#         865
  C:4F30H         LINE#         866
  C:4F35H         LINE#         867
  C:4F37H         LINE#         868
  C:4F3CH         LINE#         869
  C:4F3EH         LINE#         870
  C:4F43H         LINE#         871
  C:4F45H         LINE#         872
  C:4F4AH         LINE#         873
  C:4F4CH         LINE#         874
  C:4F51H         LINE#         875
  C:4F53H         LINE#         876
  C:4F58H         LINE#         877
  C:4F5AH         LINE#         878
  C:4F5FH         LINE#         879
  C:4F61H         LINE#         880
  C:4F66H         LINE#         881
  C:4F66H         LINE#         882
  C:4F66H         LINE#         884
  C:4F8EH         LINE#         885
  C:4F8EH         LINE#         886
  C:4F8EH         LINE#         887
  C:4F90H         LINE#         888
  C:4F92H         LINE#         889
  C:4F94H         LINE#         890
  C:4F96H         LINE#         891
  C:4F96H         LINE#         892
  C:4F98H         LINE#         893
  C:4F9AH         LINE#         894
  C:4F9CH         LINE#         895
  C:4F9EH         LINE#         896
  C:4F9EH         LINE#         897
  C:4FA0H         LINE#         898
  C:4FA2H         LINE#         899
  C:4FA4H         LINE#         900
  C:4FA6H         LINE#         901
  C:4FA6H         LINE#         902
  C:4FA8H         LINE#         903
  C:4FAAH         LINE#         904
BL51 BANKED LINKER/LOCATER V6.22                                                      06/02/2018  10:26:57  PAGE 103


  C:4FACH         LINE#         905
  C:4FAEH         LINE#         906
  C:4FAEH         LINE#         907
  C:4FB0H         LINE#         908
  C:4FB2H         LINE#         909
  C:4FB4H         LINE#         910
  C:4FB6H         LINE#         911
  C:4FB6H         LINE#         912
  C:4FB8H         LINE#         913
  C:4FBAH         LINE#         914
  C:4FBCH         LINE#         915
  C:4FBEH         LINE#         916
  C:4FBEH         LINE#         917
  C:4FC0H         LINE#         918
  C:4FC2H         LINE#         919
  C:4FC4H         LINE#         920
  C:4FC6H         LINE#         921
  C:4FC6H         LINE#         922
  C:4FC8H         LINE#         923
  C:4FCAH         LINE#         924
  C:4FCCH         LINE#         925
  C:4FCCH         LINE#         926
  C:4FCCH         LINE#         927
  C:4FCCH         LINE#         928
  C:4FCCH         LINE#         929
  C:4FCFH         LINE#         930
  -------         ENDPROC       SHOWFC
  -------         PROC          SHOWTABLE
  C:7301H         LINE#         936
  C:7301H         LINE#         937
  C:7301H         LINE#         938
  C:7304H         LINE#         939
  C:730CH         LINE#         940
  C:7311H         LINE#         941
  C:7316H         LINE#         942
  C:7319H         LINE#         943
  -------         ENDPROC       SHOWTABLE
  -------         PROC          SHOWSQSET
  C:6607H         LINE#         949
  C:6607H         LINE#         950
  C:6607H         LINE#         951
  C:660AH         LINE#         952
  C:6610H         LINE#         953
  C:6610H         LINE#         954
  C:661CH         LINE#         955
  C:6629H         LINE#         956
  C:662BH         LINE#         958
  C:662BH         LINE#         959
  C:6637H         LINE#         960
  C:6644H         LINE#         961
  C:6644H         LINE#         962
  C:6647H         LINE#         963
  -------         ENDPROC       SHOWSQSET
  -------         PROC          SHOWFACTORYSETING
  C:000EH         LINE#         970
  C:000EH         LINE#         971
  C:000EH         LINE#         972
BL51 BANKED LINKER/LOCATER V6.22                                                      06/02/2018  10:26:57  PAGE 104


  C:0011H         LINE#         974
  -------         ENDPROC       SHOWFACTORYSETING
  -------         PROC          PLAYBUTTONTONE
  C:6AF7H         LINE#         980
  C:6AF7H         LINE#         981
  C:6AF7H         LINE#         985
  C:6B05H         LINE#         987
  C:6B10H         LINE#         988
  C:6B10H         LINE#         991
  C:6B17H         LINE#         992
  C:6B19H         LINE#         993
  C:6B1FH         LINE#         994
  C:6B25H         LINE#         995
  C:6B25H         LINE#         997
  -------         ENDPROC       PLAYBUTTONTONE
  -------         PROC          SHOWHITPOWER
  C:74B7H         LINE#         998
  C:74B7H         LINE#         999
  C:74B7H         LINE#         1000
  C:74BAH         LINE#         1002
  -------         ENDPROC       SHOWHITPOWER
  -------         PROC          INITLCD
  C:729CH         LINE#         1009
  C:729CH         LINE#         1010
  C:729CH         LINE#         1011
  C:72A6H         LINE#         1012
  C:72A8H         LINE#         1013
  C:72ABH         LINE#         1015
  C:72B2H         LINE#         1016
  C:72B5H         LINE#         1017
  -------         ENDPROC       INITLCD
  -------         PROC          SETCONTRY
  C:7280H         LINE#         1023
  C:7280H         LINE#         1024
  C:7280H         LINE#         1025
  C:7283H         LINE#         1028
  C:728BH         LINE#         1029
  C:7292H         LINE#         1030
  C:7295H         LINE#         1031
  C:7298H         LINE#         1032
  C:729BH         LINE#         1033
  -------         ENDPROC       SETCONTRY
  -------         PROC          LCDSHOWERROR
  C:747DH         LINE#         1036
  C:747DH         LINE#         1037
  C:747DH         LINE#         1038
  C:7482H         LINE#         1039
  C:7487H         LINE#         1040
  C:748AH         LINE#         1041
  -------         ENDPROC       LCDSHOWERROR
  -------         PROC          CHECKHITPOWER
  C:64BBH         LINE#         1044
  C:64BBH         LINE#         1045
  C:64BBH         LINE#         1046
  C:64C1H         LINE#         1047
  C:64C1H         LINE#         1048
  C:64C4H         LINE#         1049
BL51 BANKED LINKER/LOCATER V6.22                                                      06/02/2018  10:26:57  PAGE 105


  C:64CAH         LINE#         1050
  C:64CAH         LINE#         1051
  C:64CCH         LINE#         1052
  C:64D1H         LINE#         1053
  C:64D3H         LINE#         1055
  C:64D3H         LINE#         1056
  C:64D8H         LINE#         1057
  C:64DDH         LINE#         1058
  C:64DDH         LINE#         1059
  C:64E2H         LINE#         1060
  C:64E7H         LINE#         1061
  C:64EAH         LINE#         1062
  C:64F1H         LINE#         1063
  C:64FDH         LINE#         1065
  C:64FDH         LINE#         1067
  -------         ENDPROC       CHECKHITPOWER
  -------         ENDMOD        LCD

  -------         MODULE        CB_LINE
  C:0000H         SYMBOL        _ICE_DUMMY_
  X:025AH         PUBLIC        POWLow_Led_Flag
  D:0080H         PUBLIC        P0
  D:0090H         PUBLIC        P1
  D:00A0H         PUBLIC        P2
  D:00B0H         PUBLIC        P3
  C:6310H         PUBLIC        Get4815Rssi
  D:00C8H         PUBLIC        T2CON1
  X:025BH         PUBLIC        TX_LimitTime
  X:025DH         PUBLIC        Time_Show_POWLow
  X:025EH         PUBLIC        isConnect
  X:025FH         PUBLIC        isWending
  X:0260H         PUBLIC        SqLeve_Hand
  B:0090H.0       PUBLIC        P10
  B:0090H.1       PUBLIC        P11
  B:0090H.2       PUBLIC        P12
  B:00A0H.2       PUBLIC        P22
  B:0090H.3       PUBLIC        P13
  B:0080H.4       PUBLIC        P04
  B:0090H.4       PUBLIC        P14
  B:00A0H.4       PUBLIC        P24
  B:0090H.5       PUBLIC        P15
  B:00B0H.4       PUBLIC        P34
  B:0090H.6       PUBLIC        P16
  X:0261H         PUBLIC        isBK4815_Set
  C:6B83H         PUBLIC        close_sq
  C:7263H         PUBLIC        SetBK4815Pragram
  D:0098H         PUBLIC        SCON0
  D:00D8H         PUBLIC        ADCON
  D:00C0H         PUBLIC        IIC0CON
  C:5C88H         PUBLIC        CheckBatt
  X:0262H         PUBLIC        Time_Space_POWLow_Show
  C:5B1EH         PUBLIC        wirelessCheckRec
  C:3A19H         PUBLIC        evenHandler
  X:0263H         PUBLIC        val1
  C:622AH         PUBLIC        Keys_Press_Scan
  X:0265H         PUBLIC        changeDtmf
  X:0266H         PUBLIC        RX_Freq_Hand
BL51 BANKED LINKER/LOCATER V6.22                                                      06/02/2018  10:26:57  PAGE 106


  -------         PROC          KEYS_PRESS_SCAN
  C:622AH         LINE#         46
  C:622AH         LINE#         47
  C:622AH         LINE#         49
  C:622DH         LINE#         50
  C:6230H         LINE#         51
  C:6233H         LINE#         52
  C:6236H         LINE#         53
  C:6239H         LINE#         54
  C:623CH         LINE#         55
  C:623FH         LINE#         56
  C:6242H         LINE#         57
  C:6249H         LINE#         58
  C:6249H         LINE#         60
  C:6257H         LINE#         61
  C:6266H         LINE#         62
  C:6266H         LINE#         63
  C:6269H         LINE#         64
  C:6269H         LINE#         65
  C:626EH         LINE#         66
  C:6270H         LINE#         67
  C:6270H         LINE#         68
  C:6270H         LINE#         70
  C:6270H         LINE#         71
  C:6277H         LINE#         72
  C:6277H         LINE#         73
  -------         ENDPROC       KEYS_PRESS_SCAN
  -------         PROC          SETBK4815PRAGRAM
  C:7263H         LINE#         82
  C:7263H         LINE#         83
  C:7263H         LINE#         84
  C:7268H         LINE#         85
  C:726DH         LINE#         86
  C:7270H         LINE#         87
  C:7276H         LINE#         88
  C:727AH         LINE#         89
  C:727FH         LINE#         90
  -------         ENDPROC       SETBK4815PRAGRAM
  -------         PROC          GET4815RSSI
  -------         DO            
  X:0219H         SYMBOL        i
  X:021AH         SYMBOL        rssi
  X:021CH         SYMBOL        snr_rssi
  -------         ENDDO         
  C:6310H         LINE#         92
  C:6310H         LINE#         93
  C:6310H         LINE#         97
  C:6317H         LINE#         98
  C:631BH         LINE#         99
  C:631BH         LINE#         100
  C:6326H         LINE#         101
  C:6333H         LINE#         102
  C:6338H         LINE#         103
  C:6344H         LINE#         104
  C:635BH         LINE#         105
  C:635BH         LINE#         106
  -------         ENDPROC       GET4815RSSI
BL51 BANKED LINKER/LOCATER V6.22                                                      06/02/2018  10:26:57  PAGE 107


  -------         PROC          WIRELESSCHECKREC
  -------         DO            
  X:0217H         SYMBOL        rssi
  -------         ENDDO         
  C:5B1EH         LINE#         112
  C:5B1EH         LINE#         113
  C:5B1EH         LINE#         118
  C:5B25H         LINE#         119
  C:5B25H         LINE#         120
  C:5B30H         LINE#         121
  C:5B3DH         LINE#         122
  C:5B3DH         LINE#         123
  C:5B45H         LINE#         124
  C:5B45H         LINE#         125
  C:5B47H         LINE#         126
  C:5B49H         LINE#         127
  C:5B4BH         LINE#         128
  C:5B52H         LINE#         129
  C:5B57H         LINE#         130
  C:5B5AH         LINE#         131
  C:5B5DH         LINE#         132
  C:5B62H         LINE#         134
  C:5B62H         LINE#         135
  C:5B62H         LINE#         136
  C:5B63H         LINE#         138
  C:5B63H         LINE#         139
  C:5B6EH         LINE#         140
  C:5B7BH         LINE#         141
  C:5B7BH         LINE#         146
  C:5B80H         LINE#         148
  C:5B8CH         LINE#         149
  C:5B8CH         LINE#         150
  C:5B8EH         LINE#         151
  C:5B8EH         LINE#         152
  C:5B90H         LINE#         153
  C:5B97H         LINE#         155
  C:5B97H         LINE#         156
  C:5B97H         LINE#         157
  -------         ENDPROC       WIRELESSCHECKREC
  -------         PROC          CHECKBATT
  -------         DO            
  X:0293H         SYMBOL        val
  -------         ENDDO         
  C:5C88H         LINE#         165
  C:5C88H         LINE#         166
  C:5C88H         LINE#         169
  C:5C93H         LINE#         170
  C:5C9BH         LINE#         171
  C:5C9BH         LINE#         172
  C:5C9EH         LINE#         173
  C:5CA2H         LINE#         174
  C:5CA5H         LINE#         175
  C:5CA7H         LINE#         176
  C:5CA9H         LINE#         177
  C:5CABH         LINE#         178
  C:5CADH         LINE#         179
  C:5CAFH         LINE#         180
BL51 BANKED LINKER/LOCATER V6.22                                                      06/02/2018  10:26:57  PAGE 108


  C:5CB1H         LINE#         181
  C:5CB4H         LINE#         182
  C:5CB6H         LINE#         183
  C:5CB7H         LINE#         184
  C:5CC6H         LINE#         185
  C:5CC6H         LINE#         187
  C:5CCEH         LINE#         188
  C:5CCEH         LINE#         189
  C:5CD1H         LINE#         191
  C:5CD2H         LINE#         193
  C:5CD2H         LINE#         195
  C:5CD4H         LINE#         196
  C:5CDBH         LINE#         197
  C:5CDDH         LINE#         198
  C:5CE3H         LINE#         199
  C:5CE9H         LINE#         200
  C:5CF0H         LINE#         201
  C:5CF2H         LINE#         202
  C:5CF8H         LINE#         203
  C:5CF8H         LINE#         204
  C:5CF9H         LINE#         206
  C:5CF9H         LINE#         207
  C:5CFFH         LINE#         208
  C:5CFFH         LINE#         211
  -------         ENDPROC       CHECKBATT
  -------         PROC          CLOSE_SQ
  C:6B83H         LINE#         213
  C:6B83H         LINE#         214
  C:6B83H         LINE#         215
  C:6B93H         LINE#         216
  C:6B93H         LINE#         219
  C:6B9FH         LINE#         220
  C:6B9FH         LINE#         221
  C:6BA1H         LINE#         222
  C:6BA1H         LINE#         223
  C:6BA3H         LINE#         224
  C:6BA8H         LINE#         225
  C:6BAFH         LINE#         226
  C:6BAFH         LINE#         227
  -------         ENDPROC       CLOSE_SQ
  -------         PROC          EVENHANDLER
  -------         DO            
  X:0211H         SYMBOL        oldDtmfNum
  X:0213H         SYMBOL        oldFreq
  -------         ENDDO         
  C:3A19H         LINE#         233
  C:3A19H         LINE#         234
  C:3A19H         LINE#         235
  C:3A20H         LINE#         236
  C:3A28H         LINE#         238
  C:3A3AH         LINE#         239
  C:3A3AH         LINE#         240
  C:3A3AH         LINE#         241
  C:3A3AH         LINE#         243
  C:3A40H         LINE#         244
  C:3A40H         LINE#         245
  C:3A43H         LINE#         246
BL51 BANKED LINKER/LOCATER V6.22                                                      06/02/2018  10:26:57  PAGE 109


  C:3A48H         LINE#         247
  C:3A4CH         LINE#         248
  C:3A4EH         LINE#         249
  C:3A51H         LINE#         250
  C:3A54H         LINE#         251
  C:3A70H         LINE#         252
  C:3A70H         LINE#         253
  C:3A75H         LINE#         254
  C:3A77H         LINE#         255
  C:3A79H         LINE#         256
  C:3A79H         LINE#         257
  C:3A80H         LINE#         258
  C:3A88H         LINE#         259
  C:3A88H         LINE#         260
  C:3A8EH         LINE#         261
  C:3A8EH         LINE#         262
  C:3A8EH         LINE#         263
  C:3A99H         LINE#         264
  C:3A99H         LINE#         265
  C:3A9FH         LINE#         266
  C:3AA5H         LINE#         267
  C:3AAAH         LINE#         268
  C:3AB4H         LINE#         269
  C:3AB4H         LINE#         270
  C:3ABDH         LINE#         271
  C:3ABDH         LINE#         272
  C:3AC6H         LINE#         273
  C:3AC6H         LINE#         274
  C:3ACBH         LINE#         275
  C:3ACEH         LINE#         277
  C:3ACEH         LINE#         279
  C:3AD3H         LINE#         280
  C:3AE7H         LINE#         281
  C:3AF4H         LINE#         282
  C:3AF9H         LINE#         283
  C:3AF9H         LINE#         284
  C:3AFFH         LINE#         285
  C:3B01H         LINE#         286
  C:3B06H         LINE#         288
  C:3B20H         LINE#         289
  C:3B20H         LINE#         290
  C:3B3FH         LINE#         291
  C:3B41H         LINE#         292
  C:3B4BH         LINE#         295
  C:3B53H         LINE#         296
  C:3B53H         LINE#         297
  C:3B5DH         LINE#         298
  C:3B71H         LINE#         299
  C:3B71H         LINE#         301
  C:3B76H         LINE#         302
  C:3B76H         LINE#         303
  C:3B76H         LINE#         304
  C:3B76H         LINE#         305
  C:3B76H         LINE#         306
  C:3B79H         LINE#         308
  C:3B7AH         LINE#         309
  C:3B7AH         LINE#         310
BL51 BANKED LINKER/LOCATER V6.22                                                      06/02/2018  10:26:57  PAGE 110


  C:3B7AH         LINE#         311
  C:3B7AH         LINE#         313
  C:3B7FH         LINE#         314
  C:3B85H         LINE#         315
  C:3B85H         LINE#         316
  C:3B87H         LINE#         317
  C:3B89H         LINE#         318
  C:3B8BH         LINE#         319
  C:3B8EH         LINE#         320
  C:3B93H         LINE#         321
  C:3B96H         LINE#         322
  C:3B99H         LINE#         323
  C:3BA0H         LINE#         325
  C:3BA3H         LINE#         326
  C:3BA9H         LINE#         328
  C:3BA9H         LINE#         329
  C:3BB0H         LINE#         330
  C:3BB0H         LINE#         331
  C:3BB3H         LINE#         332
  C:3BB8H         LINE#         333
  C:3BB8H         LINE#         334
  C:3BBBH         LINE#         335
  C:3BBEH         LINE#         336
  C:3BC1H         LINE#         337
  C:3BC4H         LINE#         339
  C:3BC7H         LINE#         341
  C:3BCDH         LINE#         342
  C:3BCDH         LINE#         343
  C:3BD4H         LINE#         344
  C:3BDAH         LINE#         345
  C:3BDAH         LINE#         346
  C:3BDAH         LINE#         347
  C:3BDAH         LINE#         348
  C:3BDAH         LINE#         349
  C:3BDAH         LINE#         351
  -------         ENDPROC       EVENHANDLER
  -------         ENDMOD        CB_LINE

  -------         MODULE        MENUEVENT
  C:0000H         SYMBOL        _ICE_DUMMY_
  D:0080H         PUBLIC        P0
  D:0090H         PUBLIC        P1
  C:47FAH         PUBLIC        CHANNEL_SQ_SET_DN_FUC
  D:00A0H         PUBLIC        P2
  C:674AH         PUBLIC        CHANNEL_RFG_UP_FUC
  D:00B0H         PUBLIC        P3
  C:74CBH         PUBLIC        CHANNEL_TABLE_FUC
  C:74BFH         PUBLIC        CHANNEL_LONGF_PB_FUC
  C:71CBH         PUBLIC        CHANNEL_FUPAFRFGSCAN_DN_FUC
  C:6D50H         PUBLIC        CHANNEL_LONGF_PB_UP_FUC
  C:749FH         PUBLIC        CHANNEL_SQ_SET_FUC
  C:4917H         PUBLIC        CHANNEL_SQ_SET_UP_FUC
  C:6DF0H         PUBLIC        CHANNEL_LONGF_F_FB_DN_FUC
  C:608FH         PUBLIC        CHANNEL_DOUBLEMUTE_FUC
  D:00C8H         PUBLIC        T2CON1
  C:71EAH         PUBLIC        CHANNEL_FUPAFRFGSCAN_UP_FUC
  C:7378H         PUBLIC        CHANNEL_DOUBLEF_FUC
BL51 BANKED LINKER/LOCATER V6.22                                                      06/02/2018  10:26:57  PAGE 111


  C:6648H         PUBLIC        CHANNEL_VOLDN_FUC
  C:74C7H         PUBLIC        CHANNEL_LONGF_F_FB_FUC
  C:2B18H         PUBLIC        CHANNEL_AF_FUC
  C:50A1H         PUBLIC        CHANNEL_PPTDN_FUC
  C:564BH         PUBLIC        CHANNEL_SQ_VOLDN_FUC
  C:6DC8H         PUBLIC        CHANNEL_LONGF_F_FB_UP_FUC
  C:5170H         PUBLIC        CHANNEL_DN_FUC
  B:0090H.0       PUBLIC        P10
  B:0090H.1       PUBLIC        P11
  B:0090H.2       PUBLIC        P12
  B:00A0H.2       PUBLIC        P22
  B:0090H.3       PUBLIC        P13
  B:0080H.4       PUBLIC        P04
  C:6E3FH         PUBLIC        CHANNEL_SQ_SET_F_FUC
  C:613BH         PUBLIC        CHANNEL_VOLUP_FUC
  B:0090H.4       PUBLIC        P14
  C:7245H         PUBLIC        CHANNEL_SCAN_DN_FUC
  C:523EH         PUBLIC        CHANNEL_LONG_AF_FUC
  B:00A0H.4       PUBLIC        P24
  B:0090H.5       PUBLIC        P15
  B:00B0H.4       PUBLIC        P34
  B:0090H.6       PUBLIC        P16
  C:5805H         PUBLIC        CHANNEL_PPTUP_FUC
  C:4FD0H         PUBLIC        CHANNEL_DW_FUC
  B:0090H.7       PUBLIC        P17
  C:55ABH         PUBLIC        CHANNEL_SQ_VOLUP_FUC
  C:6AC7H         PUBLIC        CHANNEL_LOCK_PRESSOTHER_FUC
  C:74BBH         PUBLIC        CHANNEL_FUC
  C:6B26H         PUBLIC        CHANNEL_LONGF_F_F_FC_DN_FUC
  C:6BDBH         PUBLIC        CHANNEL_FRECAL_DN_FUC
  C:447AH         PUBLIC        checkChannel
  C:3F01H         PUBLIC        CHANNEL_FAF_PPT_FUC
  C:73A5H         PUBLIC        CHANNEL_SQ_FUC
  C:4C52H         PUBLIC        CHANNEL_UP_FUC
  C:6F22H         PUBLIC        CHANNEL_SCAN_FUC
  C:64FEH         PUBLIC        CHANNEL_MENU_BACK_FUC
  C:716DH         PUBLIC        CHANNEL_SCAN_UP_FUC
  C:6E18H         PUBLIC        CHANNEL_SCAN_SCAN_FUC
  C:74C3H         PUBLIC        CHANNEL_LONGF_F_F_FC_FUC
  C:74CFH         PUBLIC        CHANNEL_FRECAL_FUC
  C:6DA0H         PUBLIC        CHANNEL_LONGF_F_F_FC_UP_FUC
  C:6BB0H         PUBLIC        CHANNEL_FRECAL_UP_FUC
  C:6541H         PUBLIC        FACTORY_SETTING_FUC
  C:5F7AH         PUBLIC        CHANNEL_FAF_DN_FUC
  C:70EAH         PUBLIC        CHANNEL_LONGPOWER_FUC
  C:4E25H         PUBLIC        CHANNEL_LONGDN_FUC
  D:0098H         PUBLIC        SCON0
  D:00D8H         PUBLIC        ADCON
  D:00C0H         PUBLIC        IIC0CON
  C:5D77H         PUBLIC        CHANNEL_FAF_FUC
  C:6689H         PUBLIC        CHANNEL_RFG_DN_FUC
  C:5EB8H         PUBLIC        CHANNEL_FAF_UP_FUC
  X:0295H         PUBLIC        reStartScan
  C:60E6H         PUBLIC        CHANNEL_LONGSQ_FUC
  C:420DH         PUBLIC        CHANNEL_LONGUP_FUC
  C:53B4H         PUBLIC        CHANNEL_EMG_FUC
  X:0296H         PUBLIC        key_SQSetIndex
BL51 BANKED LINKER/LOCATER V6.22                                                      06/02/2018  10:26:57  PAGE 112


  C:6D78H         PUBLIC        CHANNEL_LONGF_PB_DN_FUC
  C:748BH         PUBLIC        CHANNEL_RFG_FUC
  -------         PROC          CHECKCHANNEL
  C:447AH         LINE#         34
  C:447AH         LINE#         35
  C:447AH         LINE#         36
  C:4480H         LINE#         37
  C:44BDH         LINE#         38
  C:44BDH         LINE#         39
  C:44CBH         LINE#         40
  C:44D9H         LINE#         41
  C:44E7H         LINE#         42
  C:44F5H         LINE#         43
  C:4503H         LINE#         44
  C:4510H         LINE#         45
  C:451DH         LINE#         46
  C:451DH         LINE#         47
  C:451DH         LINE#         48
  C:4528H         LINE#         49
  C:452EH         LINE#         50
  C:452EH         LINE#         51
  C:4530H         LINE#         52
  C:4530H         LINE#         53
  C:4530H         LINE#         54
  C:453BH         LINE#         55
  C:4541H         LINE#         56
  C:4541H         LINE#         57
  C:4543H         LINE#         58
  C:4550H         LINE#         59
  C:455DH         LINE#         60
  C:456AH         LINE#         61
  C:4577H         LINE#         62
  C:4582H         LINE#         63
  C:4582H         LINE#         64
  C:4597H         LINE#         65
  C:45A8H         LINE#         67
  -------         ENDPROC       CHECKCHANNEL
  -------         PROC          CHANNEL_FUC
  C:74BBH         LINE#         73
  C:74BBH         LINE#         74
  C:74BBH         LINE#         75
  C:74BEH         LINE#         76
  -------         ENDPROC       CHANNEL_FUC
  -------         PROC          CHANNEL_SCAN_UP_FUC
  C:716DH         LINE#         78
  C:716DH         LINE#         79
  C:716DH         LINE#         80
  C:7173H         LINE#         81
  C:717AH         LINE#         82
  C:7181H         LINE#         83
  C:7181H         LINE#         84
  C:7187H         LINE#         86
  C:718CH         LINE#         87
  C:718CH         LINE#         89
  -------         ENDPROC       CHANNEL_SCAN_UP_FUC
  -------         PROC          CHANNEL_SCAN_DN_FUC
  C:7245H         LINE#         90
BL51 BANKED LINKER/LOCATER V6.22                                                      06/02/2018  10:26:57  PAGE 113


  C:7245H         LINE#         91
  C:7245H         LINE#         92
  C:724AH         LINE#         93
  C:7250H         LINE#         94
  C:7257H         LINE#         95
  C:7257H         LINE#         96
  C:725DH         LINE#         98
  C:7262H         LINE#         99
  C:7262H         LINE#         100
  -------         ENDPROC       CHANNEL_SCAN_DN_FUC
  -------         PROC          CHANNEL_UP_FUC
  -------         DO            
  X:021BH         SYMBOL        oldchannel
  X:021CH         SYMBOL        oldband
  X:021DH         SYMBOL        oldmute
  -------         ENDDO         
  C:4C52H         LINE#         107
  C:4C52H         LINE#         108
  C:4C52H         LINE#         109
  C:4C5AH         LINE#         110
  C:4C62H         LINE#         111
  C:4C6AH         LINE#         112
  C:4C70H         LINE#         114
  C:4C73H         LINE#         116
  C:4C80H         LINE#         117
  C:4C80H         LINE#         118
  C:4C83H         LINE#         119
  C:4C85H         LINE#         121
  C:4C85H         LINE#         122
  C:4C93H         LINE#         123
  C:4C93H         LINE#         124
  C:4C99H         LINE#         125
  C:4C9FH         LINE#         126
  C:4CA5H         LINE#         138
  C:4CA7H         LINE#         140
  C:4CA7H         LINE#         141
  C:4CB3H         LINE#         142
  C:4CB3H         LINE#         143
  C:4CC1H         LINE#         144
  C:4CC6H         LINE#         156
  C:4CC6H         LINE#         158
  C:4CCEH         LINE#         160
  C:4CCEH         LINE#         161
  C:4CCEH         LINE#         163
  C:4CD1H         LINE#         164
  C:4CD9H         LINE#         165
  C:4CD9H         LINE#         166
  C:4CDCH         LINE#         167
  C:4CE1H         LINE#         168
  C:4CE5H         LINE#         169
  C:4CEEH         LINE#         170
  C:4CF6H         LINE#         171
  C:4CFDH         LINE#         172
  C:4D09H         LINE#         173
  C:4D15H         LINE#         174
  C:4D18H         LINE#         175
  C:4D19H         LINE#         177
BL51 BANKED LINKER/LOCATER V6.22                                                      06/02/2018  10:26:57  PAGE 114


  C:4D19H         LINE#         178
  C:4D21H         LINE#         179
  C:4D29H         LINE#         180
  C:4D35H         LINE#         181
  C:4D35H         LINE#         182
  C:4D37H         LINE#         183
  C:4D3DH         LINE#         184
  C:4D3DH         LINE#         185
  C:4D40H         LINE#         186
  C:4D40H         LINE#         187
  -------         ENDPROC       CHANNEL_UP_FUC
  -------         PROC          CHANNEL_LONGUP_FUC
  -------         DO            
  X:021BH         SYMBOL        oldchannel
  X:021CH         SYMBOL        oldband
  X:021DH         SYMBOL        oldmute
  -------         ENDDO         
  C:420DH         LINE#         193
  C:420DH         LINE#         194
  C:420DH         LINE#         195
  C:4215H         LINE#         196
  C:421DH         LINE#         197
  C:4225H         LINE#         198
  C:4228H         LINE#         199
  C:4236H         LINE#         200
  C:4236H         LINE#         201
  C:424CH         LINE#         203
  C:424CH         LINE#         204
  C:425AH         LINE#         205
  C:425FH         LINE#         206
  C:4267H         LINE#         207
  C:4267H         LINE#         208
  C:4269H         LINE#         210
  C:4269H         LINE#         211
  C:427BH         LINE#         213
  C:427BH         LINE#         214
  C:4288H         LINE#         215
  C:4288H         LINE#         216
  C:428EH         LINE#         217
  C:4294H         LINE#         218
  C:429AH         LINE#         220
  C:429CH         LINE#         222
  C:429CH         LINE#         223
  C:42A9H         LINE#         224
  C:42A9H         LINE#         225
  C:42B7H         LINE#         226
  C:42BCH         LINE#         227
  C:42C4H         LINE#         239
  C:42C4H         LINE#         241
  C:42CCH         LINE#         243
  C:42CCH         LINE#         244
  C:42CCH         LINE#         245
  C:42CCH         LINE#         246
  C:42CFH         LINE#         247
  C:42D7H         LINE#         248
  C:42D7H         LINE#         249
  C:42DAH         LINE#         250
BL51 BANKED LINKER/LOCATER V6.22                                                      06/02/2018  10:26:57  PAGE 115


  C:42E3H         LINE#         251
  C:42EBH         LINE#         252
  C:42F0H         LINE#         253
  C:42F4H         LINE#         254
  C:42FAH         LINE#         255
  C:4306H         LINE#         256
  C:4312H         LINE#         257
  C:4315H         LINE#         258
  C:4317H         LINE#         260
  C:4317H         LINE#         261
  C:431FH         LINE#         262
  C:4327H         LINE#         263
  C:4333H         LINE#         264
  C:4333H         LINE#         265
  C:4335H         LINE#         266
  C:433BH         LINE#         267
  C:433BH         LINE#         268
  C:433EH         LINE#         269
  C:433EH         LINE#         270
  C:4341H         LINE#         271
  C:4348H         LINE#         272
  -------         ENDPROC       CHANNEL_LONGUP_FUC
  -------         PROC          CHANNEL_DN_FUC
  -------         DO            
  X:021BH         SYMBOL        oldchannel
  X:021CH         SYMBOL        oldband
  -------         ENDDO         
  C:5170H         LINE#         278
  C:5170H         LINE#         279
  C:5170H         LINE#         280
  C:5179H         LINE#         281
  C:5181H         LINE#         282
  C:5187H         LINE#         283
  C:5191H         LINE#         284
  C:5191H         LINE#         285
  C:5197H         LINE#         286
  C:5199H         LINE#         288
  C:5199H         LINE#         289
  C:519CH         LINE#         290
  C:51A9H         LINE#         291
  C:51A9H         LINE#         292
  C:51B7H         LINE#         293
  C:51BDH         LINE#         294
  C:51C5H         LINE#         306
  C:51C5H         LINE#         307
  C:51D4H         LINE#         309
  C:51DCH         LINE#         311
  C:51DCH         LINE#         312
  C:51DFH         LINE#         313
  C:51E7H         LINE#         314
  C:51E7H         LINE#         315
  C:51EAH         LINE#         317
  C:51F3H         LINE#         318
  C:51FBH         LINE#         319
  C:5200H         LINE#         320
  C:5204H         LINE#         321
  C:520AH         LINE#         322
BL51 BANKED LINKER/LOCATER V6.22                                                      06/02/2018  10:26:57  PAGE 116


  C:5216H         LINE#         323
  C:5222H         LINE#         324
  C:5225H         LINE#         326
  C:5227H         LINE#         328
  C:5227H         LINE#         329
  C:522FH         LINE#         330
  C:5237H         LINE#         331
  C:523AH         LINE#         332
  C:523AH         LINE#         333
  C:523DH         LINE#         334
  -------         ENDPROC       CHANNEL_DN_FUC
  -------         PROC          CHANNEL_LONGDN_FUC
  -------         DO            
  X:021BH         SYMBOL        oldchannel
  X:021CH         SYMBOL        oldband
  -------         ENDDO         
  C:4E25H         LINE#         340
  C:4E25H         LINE#         341
  C:4E25H         LINE#         342
  C:4E2DH         LINE#         343
  C:4E35H         LINE#         345
  C:4E38H         LINE#         346
  C:4E46H         LINE#         347
  C:4E46H         LINE#         348
  C:4E55H         LINE#         350
  C:4E55H         LINE#         351
  C:4E63H         LINE#         352
  C:4E69H         LINE#         353
  C:4E76H         LINE#         354
  C:4E76H         LINE#         355
  C:4E78H         LINE#         357
  C:4E78H         LINE#         358
  C:4E8AH         LINE#         359
  C:4E92H         LINE#         360
  C:4E92H         LINE#         361
  C:4E95H         LINE#         362
  C:4E9DH         LINE#         363
  C:4E9DH         LINE#         364
  C:4EA0H         LINE#         365
  C:4EA9H         LINE#         366
  C:4EB1H         LINE#         367
  C:4EB6H         LINE#         368
  C:4EBAH         LINE#         369
  C:4EC0H         LINE#         370
  C:4ECCH         LINE#         371
  C:4ED8H         LINE#         372
  C:4EDBH         LINE#         374
  C:4EDDH         LINE#         376
  C:4EDDH         LINE#         377
  C:4EE5H         LINE#         378
  C:4EEDH         LINE#         379
  C:4EF0H         LINE#         380
  C:4EF0H         LINE#         381
  C:4EF3H         LINE#         382
  C:4EFAH         LINE#         383
  -------         ENDPROC       CHANNEL_LONGDN_FUC
  -------         PROC          CHANNEL_VOLUP_FUC
BL51 BANKED LINKER/LOCATER V6.22                                                      06/02/2018  10:26:57  PAGE 117


  C:613BH         LINE#         389
  C:613BH         LINE#         390
  C:613BH         LINE#         392
  C:6144H         LINE#         393
  C:6144H         LINE#         394
  C:6147H         LINE#         395
  C:6147H         LINE#         396
  C:614FH         LINE#         397
  C:614FH         LINE#         398
  C:615DH         LINE#         399
  C:615DH         LINE#         400
  C:615FH         LINE#         401
  C:615FH         LINE#         402
  C:616BH         LINE#         403
  C:616DH         LINE#         405
  C:616DH         LINE#         406
  C:6176H         LINE#         407
  C:6176H         LINE#         408
  C:6179H         LINE#         409
  C:6179H         LINE#         410
  C:617FH         LINE#         411
  C:617FH         LINE#         412
  C:6181H         LINE#         413
  C:6181H         LINE#         415
  C:6181H         LINE#         416
  C:6184H         LINE#         417
  C:618BH         LINE#         418
  -------         ENDPROC       CHANNEL_VOLUP_FUC
  -------         PROC          CHANNEL_VOLDN_FUC
  C:6648H         LINE#         424
  C:6648H         LINE#         425
  C:6648H         LINE#         427
  C:6651H         LINE#         428
  C:6651H         LINE#         429
  C:6654H         LINE#         430
  C:6654H         LINE#         431
  C:665CH         LINE#         432
  C:665CH         LINE#         433
  C:6668H         LINE#         434
  C:666EH         LINE#         435
  C:666EH         LINE#         436
  C:6670H         LINE#         437
  C:6670H         LINE#         439
  C:6672H         LINE#         441
  C:6672H         LINE#         442
  C:667BH         LINE#         443
  C:667BH         LINE#         444
  C:667EH         LINE#         445
  C:667EH         LINE#         446
  C:667EH         LINE#         448
  C:6681H         LINE#         450
  C:6688H         LINE#         451
  -------         ENDPROC       CHANNEL_VOLDN_FUC
  -------         PROC          CHANNEL_SQ_FUC
  C:73A5H         LINE#         457
  C:73A5H         LINE#         458
  C:73A5H         LINE#         459
BL51 BANKED LINKER/LOCATER V6.22                                                      06/02/2018  10:26:57  PAGE 118


  C:73ABH         LINE#         460
  C:73ABH         LINE#         461
  C:73AEH         LINE#         462
  C:73B0H         LINE#         463
  C:73B3H         LINE#         464
  C:73BAH         LINE#         465
  -------         ENDPROC       CHANNEL_SQ_FUC
  -------         PROC          CHANNEL_SQ_VOLUP_FUC
  -------         DO            
  X:021BH         SYMBOL        temp1_sq
  -------         ENDDO         
  C:55ABH         LINE#         471
  C:55ABH         LINE#         472
  C:55ABH         LINE#         474
  C:55B1H         LINE#         475
  C:55B1H         LINE#         476
  C:55B9H         LINE#         477
  C:55C2H         LINE#         478
  C:55C2H         LINE#         479
  C:55C5H         LINE#         480
  C:55C5H         LINE#         481
  C:55CDH         LINE#         482
  C:55D5H         LINE#         483
  C:55D5H         LINE#         484
  C:55DEH         LINE#         485
  C:55DEH         LINE#         486
  C:55E1H         LINE#         487
  C:55E1H         LINE#         488
  C:55E9H         LINE#         489
  C:55E9H         LINE#         490
  C:55F5H         LINE#         491
  C:55F8H         LINE#         492
  C:55FAH         LINE#         494
  C:55FAH         LINE#         495
  C:5602H         LINE#         496
  C:560BH         LINE#         497
  C:560BH         LINE#         498
  C:560EH         LINE#         499
  C:560EH         LINE#         500
  C:5618H         LINE#         501
  C:5620H         LINE#         502
  C:5620H         LINE#         503
  C:5629H         LINE#         504
  C:5629H         LINE#         505
  C:562CH         LINE#         506
  C:562CH         LINE#         507
  C:5634H         LINE#         508
  C:5634H         LINE#         509
  C:5640H         LINE#         510
  C:5643H         LINE#         511
  C:5643H         LINE#         513
  C:564AH         LINE#         514
  -------         ENDPROC       CHANNEL_SQ_VOLUP_FUC
  -------         PROC          CHANNEL_SQ_VOLDN_FUC
  -------         DO            
  X:021BH         SYMBOL        temp1_sq
  -------         ENDDO         
BL51 BANKED LINKER/LOCATER V6.22                                                      06/02/2018  10:26:57  PAGE 119


  C:564BH         LINE#         520
  C:564BH         LINE#         521
  C:564BH         LINE#         523
  C:5653H         LINE#         524
  C:5659H         LINE#         525
  C:5659H         LINE#         527
  C:5662H         LINE#         528
  C:5662H         LINE#         529
  C:5665H         LINE#         530
  C:5665H         LINE#         540
  C:566DH         LINE#         541
  C:5675H         LINE#         542
  C:5675H         LINE#         543
  C:567EH         LINE#         544
  C:567EH         LINE#         545
  C:5681H         LINE#         546
  C:5681H         LINE#         547
  C:5689H         LINE#         548
  C:5689H         LINE#         549
  C:5695H         LINE#         550
  C:5698H         LINE#         551
  C:569AH         LINE#         553
  C:569AH         LINE#         554
  C:56A3H         LINE#         555
  C:56A3H         LINE#         556
  C:56A6H         LINE#         557
  C:56A6H         LINE#         558
  C:56B0H         LINE#         559
  C:56B8H         LINE#         560
  C:56B8H         LINE#         561
  C:56C1H         LINE#         562
  C:56C1H         LINE#         563
  C:56C4H         LINE#         564
  C:56C4H         LINE#         565
  C:56CCH         LINE#         566
  C:56CCH         LINE#         567
  C:56D8H         LINE#         568
  C:56DBH         LINE#         569
  C:56DBH         LINE#         571
  C:56E2H         LINE#         572
  -------         ENDPROC       CHANNEL_SQ_VOLDN_FUC
  -------         PROC          CHANNEL_LONGSQ_FUC
  C:60E6H         LINE#         579
  C:60E6H         LINE#         580
  C:60E6H         LINE#         582
  C:60ECH         LINE#         583
  C:60ECH         LINE#         584
  C:60EEH         LINE#         585
  C:60F6H         LINE#         586
  C:60FEH         LINE#         587
  C:60FEH         LINE#         588
  C:6101H         LINE#         590
  C:6103H         LINE#         591
  C:610FH         LINE#         592
  C:6111H         LINE#         594
  C:6111H         LINE#         595
  C:6116H         LINE#         596
BL51 BANKED LINKER/LOCATER V6.22                                                      06/02/2018  10:26:57  PAGE 120


  C:611EH         LINE#         597
  C:6126H         LINE#         598
  C:6126H         LINE#         599
  C:6129H         LINE#         600
  C:612BH         LINE#         601
  C:6137H         LINE#         602
  C:6137H         LINE#         603
  C:613AH         LINE#         604
  -------         ENDPROC       CHANNEL_LONGSQ_FUC
  -------         PROC          CHANNEL_DW_FUC
  C:4FD0H         LINE#         612
  C:4FD0H         LINE#         613
  C:4FD0H         LINE#         615
  C:4FE4H         LINE#         616
  C:4FE4H         LINE#         617
  C:4FE4H         LINE#         618
  C:4FECH         LINE#         619
  C:4FF4H         LINE#         620
  C:4FFCH         LINE#         621
  C:5002H         LINE#         622
  C:5003H         LINE#         623
  C:5003H         LINE#         624
  C:5029H         LINE#         625
  C:5029H         LINE#         626
  C:502EH         LINE#         627
  C:5036H         LINE#         628
  C:503EH         LINE#         629
  C:5044H         LINE#         630
  C:5045H         LINE#         631
  C:5050H         LINE#         632
  C:5050H         LINE#         633
  C:5054H         LINE#         634
  C:5058H         LINE#         635
  C:505BH         LINE#         636
  C:505BH         LINE#         637
  C:505CH         LINE#         638
  C:505CH         LINE#         639
  C:5064H         LINE#         640
  C:506CH         LINE#         641
  C:5074H         LINE#         642
  C:5079H         LINE#         643
  C:507CH         LINE#         644
  C:5084H         LINE#         645
  C:5084H         LINE#         648
  C:5087H         LINE#         649
  C:508CH         LINE#         650
  C:5092H         LINE#         651
  C:5094H         LINE#         653
  C:5094H         LINE#         654
  C:5097H         LINE#         655
  C:5097H         LINE#         656
  C:509AH         LINE#         657
  C:509BH         LINE#         658
  C:509BH         LINE#         659
  C:50A0H         LINE#         660
  C:50A0H         LINE#         661
  C:50A0H         LINE#         663
BL51 BANKED LINKER/LOCATER V6.22                                                      06/02/2018  10:26:57  PAGE 121


  -------         ENDPROC       CHANNEL_DW_FUC
  -------         PROC          CHANNEL_SCAN_FUC
  C:6F22H         LINE#         669
  C:6F22H         LINE#         670
  C:6F22H         LINE#         672
  C:6F29H         LINE#         673
  C:6F29H         LINE#         674
  C:6F2CH         LINE#         675
  C:6F33H         LINE#         676
  C:6F35H         LINE#         677
  C:6F3BH         LINE#         678
  C:6F42H         LINE#         679
  C:6F42H         LINE#         680
  C:6F45H         LINE#         681
  C:6F45H         LINE#         682
  -------         ENDPROC       CHANNEL_SCAN_FUC
  -------         PROC          CHANNEL_SCAN_SCAN_FUC
  C:6E18H         LINE#         688
  C:6E18H         LINE#         689
  C:6E18H         LINE#         690
  C:6E1EH         LINE#         691
  C:6E23H         LINE#         692
  C:6E26H         LINE#         695
  C:6E30H         LINE#         696
  C:6E37H         LINE#         698
  C:6E3EH         LINE#         699
  -------         ENDPROC       CHANNEL_SCAN_SCAN_FUC
  -------         PROC          CHANNEL_PPTDN_FUC
  C:50A1H         LINE#         705
  C:50A1H         LINE#         706
  C:50A1H         LINE#         707
  C:50AAH         LINE#         708
  C:50AAH         LINE#         709
  C:50B9H         LINE#         710
  C:50B9H         LINE#         711
  C:50C4H         LINE#         712
  C:50C4H         LINE#         714
  C:50CCH         LINE#         715
  C:50CCH         LINE#         716
  C:50CEH         LINE#         718
  C:50E5H         LINE#         719
  C:50E5H         LINE#         720
  C:50EAH         LINE#         721
  C:50EFH         LINE#         722
  C:50F7H         LINE#         723
  C:50FCH         LINE#         724
  C:5104H         LINE#         725
  C:5104H         LINE#         726
  C:5111H         LINE#         727
  C:511CH         LINE#         728
  C:511FH         LINE#         729
  C:5124H         LINE#         731
  C:5132H         LINE#         732
  C:5137H         LINE#         733
  C:5139H         LINE#         734
  C:513BH         LINE#         735
  C:5141H         LINE#         736
BL51 BANKED LINKER/LOCATER V6.22                                                      06/02/2018  10:26:57  PAGE 122


  C:5143H         LINE#         737
  C:5145H         LINE#         738
  C:514AH         LINE#         739
  C:514AH         LINE#         740
  C:514DH         LINE#         742
  C:514DH         LINE#         743
  C:5157H         LINE#         744
  C:5157H         LINE#         745
  C:515DH         LINE#         747
  C:5160H         LINE#         748
  C:5162H         LINE#         749
  C:5164H         LINE#         750
  C:5169H         LINE#         751
  C:5169H         LINE#         752
  C:5169H         LINE#         753
  C:516CH         LINE#         754
  C:516CH         LINE#         755
  C:516FH         LINE#         756
  -------         ENDPROC       CHANNEL_PPTDN_FUC
  -------         PROC          CHANNEL_PPTUP_FUC
  C:5805H         LINE#         762
  C:5805H         LINE#         763
  C:5805H         LINE#         764
  C:580DH         LINE#         765
  C:580DH         LINE#         767
  C:5815H         LINE#         768
  C:5815H         LINE#         769
  C:581DH         LINE#         770
  C:581DH         LINE#         771
  C:5825H         LINE#         772
  C:5825H         LINE#         773
  C:582CH         LINE#         774
  C:5834H         LINE#         775
  C:5834H         LINE#         776
  C:5839H         LINE#         777
  C:583EH         LINE#         778
  C:5841H         LINE#         779
  C:5848H         LINE#         780
  C:5854H         LINE#         781
  C:5860H         LINE#         782
  C:5863H         LINE#         783
  C:5865H         LINE#         784
  C:5867H         LINE#         785
  C:586CH         LINE#         786
  C:586CH         LINE#         787
  C:586CH         LINE#         788
  C:586EH         LINE#         790
  C:586EH         LINE#         792
  C:5870H         LINE#         793
  C:5875H         LINE#         794
  C:587AH         LINE#         795
  C:587CH         LINE#         796
  C:587FH         LINE#         797
  C:5884H         LINE#         798
  C:5884H         LINE#         799
  C:5886H         LINE#         800
  C:5886H         LINE#         801
BL51 BANKED LINKER/LOCATER V6.22                                                      06/02/2018  10:26:57  PAGE 123


  C:5889H         LINE#         802
  C:5890H         LINE#         804
  -------         ENDPROC       CHANNEL_PPTUP_FUC
  -------         PROC          CHANNEL_AF_FUC
  -------         DO            
  X:021BH         SYMBOL        oldchannel
  X:021CH         SYMBOL        oldband
  X:021DH         SYMBOL        oldmodu
  -------         ENDDO         
  C:2B18H         LINE#         810
  C:2B18H         LINE#         811
  C:2B18H         LINE#         812
  C:2B21H         LINE#         813
  C:2B29H         LINE#         814
  C:2B32H         LINE#         816
  C:2B65H         LINE#         826
  C:2B65H         LINE#         828
  C:2B69H         LINE#         829
  C:2B69H         LINE#         830
  C:2B6EH         LINE#         831
  C:2B71H         LINE#         832
  C:2B79H         LINE#         833
  C:2B79H         LINE#         834
  C:2B7EH         LINE#         835
  C:2B7EH         LINE#         837
  C:2B80H         LINE#         839
  C:2B80H         LINE#         840
  C:2B86H         LINE#         841
  C:2B89H         LINE#         842
  C:2B91H         LINE#         843
  C:2B91H         LINE#         844
  C:2B95H         LINE#         845
  C:2B95H         LINE#         846
  C:2B95H         LINE#         847
  C:2B9CH         LINE#         848
  C:2B9CH         LINE#         849
  C:2BA0H         LINE#         850
  C:2BA0H         LINE#         851
  C:2BACH         LINE#         852
  C:2BAFH         LINE#         853
  C:2BC2H         LINE#         854
  C:2BC2H         LINE#         855
  C:2BC2H         LINE#         857
  C:2BC2H         LINE#         858
  C:2BD6H         LINE#         859
  C:2BD6H         LINE#         860
  C:2BEEH         LINE#         861
  C:2BEEH         LINE#         862
  C:2BF6H         LINE#         863
  C:2BFEH         LINE#         864
  C:2C01H         LINE#         865
  C:2C09H         LINE#         866
  C:2C09H         LINE#         867
  C:2C0EH         LINE#         868
  C:2C14H         LINE#         869
  C:2C20H         LINE#         870
  C:2C2CH         LINE#         871
BL51 BANKED LINKER/LOCATER V6.22                                                      06/02/2018  10:26:57  PAGE 124


  C:2C38H         LINE#         873
  C:2C3BH         LINE#         875
  C:2C3BH         LINE#         876
  C:2C43H         LINE#         877
  C:2C4BH         LINE#         878
  C:2C4BH         LINE#         880
  C:2C4EH         LINE#         882
  C:2C4EH         LINE#         883
  C:2C56H         LINE#         884
  C:2C5EH         LINE#         885
  C:2C66H         LINE#         886
  C:2C6EH         LINE#         888
  C:2C71H         LINE#         889
  C:2C79H         LINE#         890
  C:2C79H         LINE#         891
  C:2C7EH         LINE#         892
  C:2C83H         LINE#         893
  C:2C8FH         LINE#         894
  C:2C9BH         LINE#         895
  C:2CA7H         LINE#         896
  C:2CAAH         LINE#         898
  C:2CAAH         LINE#         899
  C:2CB2H         LINE#         900
  C:2CBAH         LINE#         901
  C:2CBAH         LINE#         902
  C:2CBAH         LINE#         903
  C:2CBDH         LINE#         904
  C:2CC5H         LINE#         905
  C:2CC5H         LINE#         906
  C:2CCDH         LINE#         907
  C:2CD5H         LINE#         908
  C:2CD8H         LINE#         909
  C:2CE0H         LINE#         910
  C:2CE0H         LINE#         911
  C:2CE5H         LINE#         912
  C:2CEAH         LINE#         913
  C:2CF6H         LINE#         914
  C:2D02H         LINE#         915
  C:2D0EH         LINE#         916
  C:2D11H         LINE#         917
  C:2D16H         LINE#         918
  C:2D18H         LINE#         920
  C:2D18H         LINE#         921
  C:2D20H         LINE#         922
  C:2D28H         LINE#         923
  C:2D28H         LINE#         924
  C:2D2AH         LINE#         925
  C:2D32H         LINE#         926
  C:2D32H         LINE#         927
  C:2D3AH         LINE#         928
  C:2D42H         LINE#         929
  C:2D45H         LINE#         930
  C:2D4DH         LINE#         931
  C:2D4DH         LINE#         932
  C:2D52H         LINE#         933
  C:2D56H         LINE#         934
  C:2D62H         LINE#         935
BL51 BANKED LINKER/LOCATER V6.22                                                      06/02/2018  10:26:57  PAGE 125


  C:2D6EH         LINE#         936
  C:2D7AH         LINE#         938
  C:2D7CH         LINE#         940
  C:2D7CH         LINE#         941
  C:2D84H         LINE#         942
  C:2D8CH         LINE#         943
  C:2D8CH         LINE#         944
  C:2D8CH         LINE#         945
  C:2D8CH         LINE#         946
  C:2D8FH         LINE#         947
  C:2D96H         LINE#         948
  -------         ENDPROC       CHANNEL_AF_FUC
  -------         PROC          CHANNEL_LONG_AF_FUC
  -------         DO            
  X:021BH         SYMBOL        oldchannel
  -------         ENDDO         
  C:523EH         LINE#         954
  C:523EH         LINE#         955
  C:523EH         LINE#         956
  C:5243H         LINE#         957
  C:524BH         LINE#         958
  C:524BH         LINE#         959
  C:524EH         LINE#         960
  C:5254H         LINE#         961
  C:525CH         LINE#         962
  C:5262H         LINE#         963
  C:526AH         LINE#         964
  C:526AH         LINE#         965
  C:526DH         LINE#         966
  C:5275H         LINE#         967
  C:527CH         LINE#         968
  C:527FH         LINE#         969
  C:5285H         LINE#         970
  C:5288H         LINE#         971
  C:528AH         LINE#         973
  C:528AH         LINE#         974
  C:5290H         LINE#         975
  C:5298H         LINE#         976
  C:5298H         LINE#         977
  C:529AH         LINE#         978
  C:52AAH         LINE#         979
  C:52AAH         LINE#         980
  C:52ADH         LINE#         981
  C:52B3H         LINE#         982
  C:52BBH         LINE#         983
  C:52C1H         LINE#         984
  C:52C9H         LINE#         985
  C:52C9H         LINE#         986
  C:52CCH         LINE#         987
  C:52D1H         LINE#         988
  C:52D4H         LINE#         989
  C:52DCH         LINE#         990
  C:52E3H         LINE#         991
  C:52E6H         LINE#         992
  C:52E9H         LINE#         993
  C:52EBH         LINE#         995
  C:52EBH         LINE#         996
BL51 BANKED LINKER/LOCATER V6.22                                                      06/02/2018  10:26:57  PAGE 126


  C:52F1H         LINE#         997
  C:52F9H         LINE#         998
  C:52F9H         LINE#         999
  C:52F9H         LINE#         1000
  C:52FCH         LINE#         1001
  -------         ENDPROC       CHANNEL_LONG_AF_FUC
  -------         PROC          CHANNEL_FAF_FUC
  -------         DO            
  X:021BH         SYMBOL        i
  -------         ENDDO         
  C:5D77H         LINE#         1007
  C:5D77H         LINE#         1008
  C:5D77H         LINE#         1010
  C:5D7CH         LINE#         1011
  C:5D7CH         LINE#         1012
  C:5D7EH         LINE#         1013
  C:5D85H         LINE#         1014
  C:5D87H         LINE#         1015
  C:5D8EH         LINE#         1016
  C:5D9AH         LINE#         1017
  C:5D9DH         LINE#         1018
  C:5DA9H         LINE#         1019
  C:5DB8H         LINE#         1020
  C:5DB8H         LINE#         1021
  C:5DB8H         LINE#         1022
  C:5DC3H         LINE#         1023
  C:5DC5H         LINE#         1024
  C:5DC5H         LINE#         1025
  C:5DD0H         LINE#         1026
  C:5DD2H         LINE#         1027
  C:5DD2H         LINE#         1028
  C:5DDEH         LINE#         1029
  C:5DDEH         LINE#         1030
  C:5DDEH         LINE#         1031
  C:5DDEH         LINE#         1032
  C:5DDEH         LINE#         1033
  C:5DE6H         LINE#         1034
  -------         ENDPROC       CHANNEL_FAF_FUC
  -------         PROC          CHANNEL_RFG_FUC
  C:748BH         LINE#         1040
  C:748BH         LINE#         1041
  C:748BH         LINE#         1042
  C:7492H         LINE#         1043
  C:7495H         LINE#         1044
  -------         ENDPROC       CHANNEL_RFG_FUC
  -------         PROC          CHANNEL_RFG_UP_FUC
  C:674AH         LINE#         1050
  C:674AH         LINE#         1051
  C:674AH         LINE#         1053
  C:6753H         LINE#         1054
  C:6753H         LINE#         1055
  C:6756H         LINE#         1056
  C:6758H         LINE#         1057
  C:675DH         LINE#         1058
  C:6765H         LINE#         1059
  C:6765H         LINE#         1060
  C:6771H         LINE#         1061
BL51 BANKED LINKER/LOCATER V6.22                                                      06/02/2018  10:26:57  PAGE 127


  C:6773H         LINE#         1063
  C:6773H         LINE#         1064
  C:677FH         LINE#         1065
  C:677FH         LINE#         1066
  C:6782H         LINE#         1067
  C:6789H         LINE#         1068
  -------         ENDPROC       CHANNEL_RFG_UP_FUC
  -------         PROC          CHANNEL_RFG_DN_FUC
  C:6689H         LINE#         1074
  C:6689H         LINE#         1075
  C:6689H         LINE#         1077
  C:6692H         LINE#         1078
  C:6692H         LINE#         1079
  C:6695H         LINE#         1080
  C:6697H         LINE#         1081
  C:669DH         LINE#         1082
  C:66A5H         LINE#         1083
  C:66A5H         LINE#         1084
  C:66B1H         LINE#         1085
  C:66B3H         LINE#         1087
  C:66B3H         LINE#         1088
  C:66BFH         LINE#         1089
  C:66BFH         LINE#         1090
  C:66C2H         LINE#         1091
  C:66C9H         LINE#         1092
  -------         ENDPROC       CHANNEL_RFG_DN_FUC
  -------         PROC          CHANNEL_EMG_FUC
  -------         DO            
  X:021BH         SYMBOL        oldchannel
  X:021CH         SYMBOL        oldband
  -------         ENDDO         
  C:53B4H         LINE#         1098
  C:53B4H         LINE#         1099
  C:53B4H         LINE#         1102
  C:53BDH         LINE#         1103
  C:53C5H         LINE#         1104
  C:53D3H         LINE#         1105
  C:53D3H         LINE#         1106
  C:53D3H         LINE#         1107
  C:53E0H         LINE#         1108
  C:53E6H         LINE#         1109
  C:53EBH         LINE#         1111
  C:53FAH         LINE#         1112
  C:5400H         LINE#         1114
  C:5402H         LINE#         1115
  C:5408H         LINE#         1116
  C:540EH         LINE#         1118
  C:5410H         LINE#         1119
  C:5415H         LINE#         1121
  C:541DH         LINE#         1122
  C:541DH         LINE#         1123
  C:541DH         LINE#         1124
  C:5420H         LINE#         1125
  C:5428H         LINE#         1126
  C:5428H         LINE#         1128
  C:5434H         LINE#         1129
  C:5440H         LINE#         1130
BL51 BANKED LINKER/LOCATER V6.22                                                      06/02/2018  10:26:57  PAGE 128


  C:544CH         LINE#         1131
  C:544FH         LINE#         1132
  C:5451H         LINE#         1134
  C:5451H         LINE#         1135
  C:5459H         LINE#         1136
  C:5461H         LINE#         1137
  C:5464H         LINE#         1138
  C:5464H         LINE#         1140
  C:5467H         LINE#         1141
  -------         ENDPROC       CHANNEL_EMG_FUC
  -------         PROC          CHANNEL_DOUBLEF_FUC
  C:7378H         LINE#         1147
  C:7378H         LINE#         1148
  C:7378H         LINE#         1149
  C:737EH         LINE#         1150
  C:737EH         LINE#         1151
  C:7380H         LINE#         1152
  C:7384H         LINE#         1153
  C:7385H         LINE#         1155
  C:7385H         LINE#         1156
  C:738AH         LINE#         1157
  C:738EH         LINE#         1158
  C:738EH         LINE#         1159
  -------         ENDPROC       CHANNEL_DOUBLEF_FUC
  -------         PROC          CHANNEL_LONGF_PB_FUC
  C:74BFH         LINE#         1165
  C:74BFH         LINE#         1166
  C:74BFH         LINE#         1167
  C:74C2H         LINE#         1168
  -------         ENDPROC       CHANNEL_LONGF_PB_FUC
  -------         PROC          CHANNEL_LONGF_PB_UP_FUC
  C:6D50H         LINE#         1174
  C:6D50H         LINE#         1175
  C:6D50H         LINE#         1177
  C:6D57H         LINE#         1178
  C:6D57H         LINE#         1179
  C:6D59H         LINE#         1180
  C:6D5BH         LINE#         1181
  C:6D61H         LINE#         1182
  C:6D6DH         LINE#         1183
  C:6D70H         LINE#         1184
  C:6D77H         LINE#         1185
  -------         ENDPROC       CHANNEL_LONGF_PB_UP_FUC
  -------         PROC          CHANNEL_LONGF_PB_DN_FUC
  C:6D78H         LINE#         1191
  C:6D78H         LINE#         1192
  C:6D78H         LINE#         1193
  C:6D7FH         LINE#         1194
  C:6D7FH         LINE#         1195
  C:6D81H         LINE#         1196
  C:6D83H         LINE#         1197
  C:6D89H         LINE#         1198
  C:6D95H         LINE#         1199
  C:6D98H         LINE#         1200
  C:6D9FH         LINE#         1201
  -------         ENDPROC       CHANNEL_LONGF_PB_DN_FUC
  -------         PROC          CHANNEL_LONGF_F_F_FC_FUC
BL51 BANKED LINKER/LOCATER V6.22                                                      06/02/2018  10:26:57  PAGE 129


  C:74C3H         LINE#         1207
  C:74C3H         LINE#         1208
  C:74C3H         LINE#         1209
  C:74C6H         LINE#         1210
  -------         ENDPROC       CHANNEL_LONGF_F_F_FC_FUC
  -------         PROC          CHANNEL_LONGF_F_F_FC_UP_FUC
  C:6DA0H         LINE#         1216
  C:6DA0H         LINE#         1217
  C:6DA0H         LINE#         1219
  C:6DA7H         LINE#         1220
  C:6DA7H         LINE#         1221
  C:6DA9H         LINE#         1222
  C:6DABH         LINE#         1223
  C:6DB1H         LINE#         1224
  C:6DBDH         LINE#         1225
  C:6DC0H         LINE#         1226
  C:6DC7H         LINE#         1227
  -------         ENDPROC       CHANNEL_LONGF_F_F_FC_UP_FUC
  -------         PROC          CHANNEL_LONGF_F_F_FC_DN_FUC
  C:6B26H         LINE#         1233
  C:6B26H         LINE#         1234
  C:6B26H         LINE#         1235
  C:6B2DH         LINE#         1236
  C:6B33H         LINE#         1237
  C:6B33H         LINE#         1238
  C:6B36H         LINE#         1239
  C:6B38H         LINE#         1240
  C:6B3EH         LINE#         1241
  C:6B4AH         LINE#         1242
  C:6B4DH         LINE#         1243
  C:6B54H         LINE#         1244
  -------         ENDPROC       CHANNEL_LONGF_F_F_FC_DN_FUC
  -------         PROC          CHANNEL_LONGF_F_FB_FUC
  C:74C7H         LINE#         1250
  C:74C7H         LINE#         1251
  C:74C7H         LINE#         1252
  C:74CAH         LINE#         1253
  -------         ENDPROC       CHANNEL_LONGF_F_FB_FUC
  -------         PROC          CHANNEL_LONGF_F_FB_UP_FUC
  C:6DC8H         LINE#         1259
  C:6DC8H         LINE#         1260
  C:6DC8H         LINE#         1262
  C:6DCFH         LINE#         1263
  C:6DCFH         LINE#         1264
  C:6DD1H         LINE#         1265
  C:6DD3H         LINE#         1266
  C:6DD9H         LINE#         1267
  C:6DE5H         LINE#         1268
  C:6DE8H         LINE#         1269
  C:6DEFH         LINE#         1270
  -------         ENDPROC       CHANNEL_LONGF_F_FB_UP_FUC
  -------         PROC          CHANNEL_LONGF_F_FB_DN_FUC
  C:6DF0H         LINE#         1276
  C:6DF0H         LINE#         1277
  C:6DF0H         LINE#         1279
  C:6DF7H         LINE#         1280
  C:6DF7H         LINE#         1281
BL51 BANKED LINKER/LOCATER V6.22                                                      06/02/2018  10:26:57  PAGE 130


  C:6DF9H         LINE#         1282
  C:6DFBH         LINE#         1283
  C:6E01H         LINE#         1284
  C:6E0DH         LINE#         1285
  C:6E10H         LINE#         1286
  C:6E17H         LINE#         1287
  -------         ENDPROC       CHANNEL_LONGF_F_FB_DN_FUC
  -------         PROC          CHANNEL_MENU_BACK_FUC
  C:64FEH         LINE#         1295
  C:64FEH         LINE#         1296
  C:64FEH         LINE#         1298
  C:6504H         LINE#         1300
  C:6508H         LINE#         1301
  C:6510H         LINE#         1302
  C:6513H         LINE#         1303
  C:651FH         LINE#         1304
  C:6522H         LINE#         1305
  C:6525H         LINE#         1306
  C:652FH         LINE#         1307
  C:6536H         LINE#         1308
  C:6539H         LINE#         1309
  C:6540H         LINE#         1311
  -------         ENDPROC       CHANNEL_MENU_BACK_FUC
  -------         PROC          CHANNEL_DOUBLEMUTE_FUC
  C:608FH         LINE#         1317
  C:608FH         LINE#         1318
  C:608FH         LINE#         1319
  C:6099H         LINE#         1320
  C:609EH         LINE#         1323
  C:60A6H         LINE#         1324
  C:60A6H         LINE#         1325
  C:60ACH         LINE#         1326
  C:60ACH         LINE#         1327
  C:60B1H         LINE#         1328
  C:60C0H         LINE#         1329
  C:60C0H         LINE#         1330
  C:60C2H         LINE#         1331
  C:60C2H         LINE#         1332
  C:60C3H         LINE#         1334
  C:60C3H         LINE#         1335
  C:60C8H         LINE#         1336
  C:60D4H         LINE#         1337
  C:60D4H         LINE#         1338
  C:60D6H         LINE#         1339
  C:60D6H         LINE#         1340
  C:60D6H         LINE#         1341
  C:60D7H         LINE#         1343
  C:60D7H         LINE#         1344
  C:60E0H         LINE#         1345
  C:60E5H         LINE#         1346
  C:60E5H         LINE#         1361
  -------         ENDPROC       CHANNEL_DOUBLEMUTE_FUC
  -------         PROC          CHANNEL_LONGPOWER_FUC
  C:70EAH         LINE#         1367
  C:70EAH         LINE#         1368
  C:70EAH         LINE#         1369
  C:70EDH         LINE#         1370
BL51 BANKED LINKER/LOCATER V6.22                                                      06/02/2018  10:26:57  PAGE 131


  C:70F1H         LINE#         1371
  C:70F4H         LINE#         1372
  C:70F7H         LINE#         1373
  C:70F9H         LINE#         1374
  C:70FBH         LINE#         1375
  C:70FDH         LINE#         1376
  C:70FFH         LINE#         1377
  C:7101H         LINE#         1378
  C:7103H         LINE#         1379
  C:7105H         LINE#         1380
  C:7108H         LINE#         1381
  C:710AH         LINE#         1383
  -------         ENDPROC       CHANNEL_LONGPOWER_FUC
  -------         PROC          CHANNEL_LOCK_PRESSOTHER_FUC
  -------         DO            
  X:021BH         SYMBOL        i
  -------         ENDDO         
  C:6AC7H         LINE#         1390
  C:6AC7H         LINE#         1391
  C:6AC7H         LINE#         1393
  C:6ACCH         LINE#         1394
  C:6ACCH         LINE#         1395
  C:6AD1H         LINE#         1396
  C:6AD4H         LINE#         1397
  C:6ADBH         LINE#         1398
  C:6AE0H         LINE#         1399
  C:6AE3H         LINE#         1400
  C:6AEAH         LINE#         1401
  C:6AF6H         LINE#         1402
  -------         ENDPROC       CHANNEL_LOCK_PRESSOTHER_FUC
  -------         PROC          CHANNEL_FAF_DN_FUC
  C:5F7AH         LINE#         1408
  C:5F7AH         LINE#         1409
  C:5F7AH         LINE#         1411
  C:5F89H         LINE#         1412
  C:5F89H         LINE#         1413
  C:5F89H         LINE#         1414
  C:5F97H         LINE#         1415
  C:5F9CH         LINE#         1416
  C:5F9EH         LINE#         1417
  C:5F9EH         LINE#         1418
  C:5FACH         LINE#         1419
  C:5FB1H         LINE#         1420
  C:5FB3H         LINE#         1421
  C:5FB3H         LINE#         1422
  C:5FC1H         LINE#         1423
  C:5FC7H         LINE#         1424
  C:5FC7H         LINE#         1425
  C:5FC7H         LINE#         1427
  C:5FCAH         LINE#         1428
  C:5FD2H         LINE#         1429
  C:5FD9H         LINE#         1430
  -------         ENDPROC       CHANNEL_FAF_DN_FUC
  -------         PROC          CHANNEL_FAF_UP_FUC
  C:5EB8H         LINE#         1436
  C:5EB8H         LINE#         1437
  C:5EB8H         LINE#         1439
BL51 BANKED LINKER/LOCATER V6.22                                                      06/02/2018  10:26:57  PAGE 132


  C:5EC7H         LINE#         1440
  C:5EC7H         LINE#         1441
  C:5EC7H         LINE#         1442
  C:5ED5H         LINE#         1443
  C:5EDBH         LINE#         1444
  C:5EDDH         LINE#         1445
  C:5EDDH         LINE#         1446
  C:5EEBH         LINE#         1447
  C:5EF1H         LINE#         1448
  C:5EF3H         LINE#         1449
  C:5EF3H         LINE#         1450
  C:5F01H         LINE#         1451
  C:5F07H         LINE#         1452
  C:5F07H         LINE#         1453
  C:5F07H         LINE#         1454
  C:5F0AH         LINE#         1455
  C:5F12H         LINE#         1456
  C:5F19H         LINE#         1457
  -------         ENDPROC       CHANNEL_FAF_UP_FUC
  -------         PROC          CHANNEL_FAF_PPT_FUC
  -------         DO            
  X:021BH         SYMBOL        i
  -------         ENDDO         
  C:3F01H         LINE#         1463
  C:3F01H         LINE#         1464
  C:3F01H         LINE#         1466
  C:3F06H         LINE#         1467
  C:3F06H         LINE#         1468
  C:3F08H         LINE#         1469
  C:3F0FH         LINE#         1470
  C:3F11H         LINE#         1471
  C:3F18H         LINE#         1472
  C:3F24H         LINE#         1473
  C:3F36H         LINE#         1478
  C:3F36H         LINE#         1479
  C:3F3BH         LINE#         1480
  C:3F3DH         LINE#         1481
  C:3F43H         LINE#         1482
  C:3F49H         LINE#         1485
  C:3F4FH         LINE#         1486
  C:3F8CH         LINE#         1487
  C:3F8CH         LINE#         1488
  C:3F94H         LINE#         1489
  C:3F9CH         LINE#         1490
  C:3FA4H         LINE#         1491
  C:3FACH         LINE#         1492
  C:3FB4H         LINE#         1493
  C:3FBCH         LINE#         1494
  C:3FC4H         LINE#         1495
  C:3FD2H         LINE#         1496
  C:3FE0H         LINE#         1497
  C:3FE8H         LINE#         1498
  C:3FF0H         LINE#         1499
  C:3FF8H         LINE#         1500
  C:4000H         LINE#         1501
  C:4006H         LINE#         1502
  C:4006H         LINE#         1503
BL51 BANKED LINKER/LOCATER V6.22                                                      06/02/2018  10:26:57  PAGE 133


  C:400DH         LINE#         1504
  C:400DH         LINE#         1505
  C:4013H         LINE#         1506
  C:401BH         LINE#         1508
  C:4021H         LINE#         1509
  C:4029H         LINE#         1511
  C:402FH         LINE#         1512
  C:4037H         LINE#         1514
  C:4039H         LINE#         1516
  C:4039H         LINE#         1517
  C:403FH         LINE#         1518
  C:4047H         LINE#         1520
  C:404DH         LINE#         1521
  C:4055H         LINE#         1523
  C:405BH         LINE#         1524
  C:4063H         LINE#         1526
  C:4063H         LINE#         1527
  C:4066H         LINE#         1528
  C:406EH         LINE#         1529
  C:406EH         LINE#         1530
  C:4071H         LINE#         1531
  C:4074H         LINE#         1532
  C:4077H         LINE#         1533
  C:407AH         LINE#         1534
  C:407FH         LINE#         1535
  C:4081H         LINE#         1536
  C:4084H         LINE#         1537
  C:4089H         LINE#         1538
  -------         ENDPROC       CHANNEL_FAF_PPT_FUC
  -------         PROC          CHANNEL_TABLE_FUC
  C:74CBH         LINE#         1544
  C:74CBH         LINE#         1545
  C:74CBH         LINE#         1546
  C:74CEH         LINE#         1547
  -------         ENDPROC       CHANNEL_TABLE_FUC
  -------         PROC          CHANNEL_FUPAFRFGSCAN_DN_FUC
  C:71CBH         LINE#         1553
  C:71CBH         LINE#         1554
  C:71CBH         LINE#         1555
  C:71D4H         LINE#         1556
  C:71D4H         LINE#         1557
  C:71D7H         LINE#         1558
  C:71D9H         LINE#         1559
  C:71DFH         LINE#         1561
  C:71E2H         LINE#         1562
  C:71E9H         LINE#         1563
  -------         ENDPROC       CHANNEL_FUPAFRFGSCAN_DN_FUC
  -------         PROC          CHANNEL_FUPAFRFGSCAN_UP_FUC
  C:71EAH         LINE#         1569
  C:71EAH         LINE#         1570
  C:71EAH         LINE#         1573
  C:71F3H         LINE#         1574
  C:71F3H         LINE#         1575
  C:71F6H         LINE#         1576
  C:71F8H         LINE#         1577
  C:71FEH         LINE#         1579
  C:7201H         LINE#         1580
BL51 BANKED LINKER/LOCATER V6.22                                                      06/02/2018  10:26:57  PAGE 134


  C:7208H         LINE#         1581
  -------         ENDPROC       CHANNEL_FUPAFRFGSCAN_UP_FUC
  -------         PROC          CHANNEL_SQ_SET_FUC
  C:749FH         LINE#         1587
  C:749FH         LINE#         1588
  C:749FH         LINE#         1589
  C:74A4H         LINE#         1590
  C:74A7H         LINE#         1591
  -------         ENDPROC       CHANNEL_SQ_SET_FUC
  -------         PROC          CHANNEL_SQ_SET_UP_FUC
  -------         DO            
  X:021BH         SYMBOL        temp1_sq
  -------         ENDDO         
  C:4917H         LINE#         1597
  C:4917H         LINE#         1598
  C:4917H         LINE#         1600
  C:492EH         LINE#         1601
  C:492EH         LINE#         1602
  C:492EH         LINE#         1603
  C:4934H         LINE#         1604
  C:4934H         LINE#         1605
  C:493CH         LINE#         1606
  C:4945H         LINE#         1607
  C:4945H         LINE#         1608
  C:4948H         LINE#         1609
  C:4948H         LINE#         1610
  C:4950H         LINE#         1611
  C:4958H         LINE#         1612
  C:4958H         LINE#         1614
  C:4961H         LINE#         1615
  C:4961H         LINE#         1616
  C:4964H         LINE#         1617
  C:4964H         LINE#         1618
  C:496CH         LINE#         1619
  C:496CH         LINE#         1621
  C:496EH         LINE#         1623
  C:496EH         LINE#         1624
  C:4976H         LINE#         1625
  C:497FH         LINE#         1626
  C:497FH         LINE#         1627
  C:4982H         LINE#         1628
  C:4982H         LINE#         1629
  C:498CH         LINE#         1630
  C:4994H         LINE#         1631
  C:4994H         LINE#         1632
  C:499DH         LINE#         1633
  C:499DH         LINE#         1634
  C:49A0H         LINE#         1635
  C:49A0H         LINE#         1636
  C:49A8H         LINE#         1638
  C:49A8H         LINE#         1639
  C:49A8H         LINE#         1640
  C:49ADH         LINE#         1641
  C:49AFH         LINE#         1642
  C:49AFH         LINE#         1643
  C:49B9H         LINE#         1644
  C:49BEH         LINE#         1645
BL51 BANKED LINKER/LOCATER V6.22                                                      06/02/2018  10:26:57  PAGE 135


  C:49C6H         LINE#         1646
  C:49C6H         LINE#         1647
  C:49D0H         LINE#         1648
  C:49D5H         LINE#         1649
  C:49D5H         LINE#         1650
  C:49D7H         LINE#         1651
  C:49D7H         LINE#         1652
  C:49DDH         LINE#         1653
  C:49DDH         LINE#         1654
  C:49E6H         LINE#         1655
  C:49E9H         LINE#         1656
  C:49EBH         LINE#         1658
  C:49EBH         LINE#         1659
  C:49F6H         LINE#         1660
  C:49F9H         LINE#         1661
  C:49F9H         LINE#         1662
  C:4A01H         LINE#         1663
  C:4A01H         LINE#         1664
  C:4A07H         LINE#         1665
  C:4A07H         LINE#         1666
  C:4A10H         LINE#         1667
  C:4A13H         LINE#         1668
  C:4A15H         LINE#         1670
  C:4A15H         LINE#         1671
  C:4A20H         LINE#         1672
  C:4A23H         LINE#         1673
  C:4A23H         LINE#         1674
  C:4A23H         LINE#         1675
  C:4A23H         LINE#         1676
  C:4A23H         LINE#         1677
  C:4A26H         LINE#         1678
  C:4A2DH         LINE#         1679
  -------         ENDPROC       CHANNEL_SQ_SET_UP_FUC
  -------         PROC          CHANNEL_SQ_SET_DN_FUC
  -------         DO            
  X:021BH         SYMBOL        temp1_sq
  -------         ENDDO         
  C:47FAH         LINE#         1685
  C:47FAH         LINE#         1686
  C:47FAH         LINE#         1688
  C:4811H         LINE#         1689
  C:4811H         LINE#         1690
  C:4811H         LINE#         1691
  C:4817H         LINE#         1692
  C:4817H         LINE#         1693
  C:481FH         LINE#         1694
  C:4828H         LINE#         1695
  C:4828H         LINE#         1696
  C:482BH         LINE#         1697
  C:482BH         LINE#         1698
  C:4833H         LINE#         1699
  C:483BH         LINE#         1700
  C:483BH         LINE#         1701
  C:4844H         LINE#         1702
  C:4844H         LINE#         1703
  C:4847H         LINE#         1704
  C:4847H         LINE#         1705
BL51 BANKED LINKER/LOCATER V6.22                                                      06/02/2018  10:26:57  PAGE 136


  C:484FH         LINE#         1706
  C:484FH         LINE#         1707
  C:4854H         LINE#         1708
  C:4857H         LINE#         1710
  C:4857H         LINE#         1711
  C:485FH         LINE#         1712
  C:4868H         LINE#         1713
  C:4868H         LINE#         1714
  C:486BH         LINE#         1715
  C:486BH         LINE#         1716
  C:4875H         LINE#         1717
  C:487DH         LINE#         1718
  C:487DH         LINE#         1719
  C:4886H         LINE#         1720
  C:4886H         LINE#         1721
  C:4889H         LINE#         1722
  C:4889H         LINE#         1723
  C:4891H         LINE#         1724
  C:4891H         LINE#         1725
  C:4896H         LINE#         1726
  C:4896H         LINE#         1727
  C:4898H         LINE#         1728
  C:4898H         LINE#         1729
  C:48A2H         LINE#         1730
  C:48A7H         LINE#         1731
  C:48AFH         LINE#         1732
  C:48AFH         LINE#         1733
  C:48B9H         LINE#         1734
  C:48BEH         LINE#         1735
  C:48BEH         LINE#         1736
  C:48C0H         LINE#         1737
  C:48C0H         LINE#         1738
  C:48C6H         LINE#         1739
  C:48C6H         LINE#         1740
  C:48CFH         LINE#         1741
  C:48D2H         LINE#         1742
  C:48D4H         LINE#         1744
  C:48D4H         LINE#         1745
  C:48DFH         LINE#         1746
  C:48E2H         LINE#         1747
  C:48E2H         LINE#         1748
  C:48EAH         LINE#         1749
  C:48EAH         LINE#         1750
  C:48F0H         LINE#         1751
  C:48F0H         LINE#         1752
  C:48F9H         LINE#         1753
  C:48FCH         LINE#         1754
  C:48FEH         LINE#         1756
  C:48FEH         LINE#         1757
  C:4909H         LINE#         1758
  C:490CH         LINE#         1759
  C:490CH         LINE#         1760
  C:490CH         LINE#         1762
  C:490CH         LINE#         1763
  C:490CH         LINE#         1764
  C:490FH         LINE#         1765
  C:4916H         LINE#         1766
BL51 BANKED LINKER/LOCATER V6.22                                                      06/02/2018  10:26:57  PAGE 137


  -------         ENDPROC       CHANNEL_SQ_SET_DN_FUC
  -------         PROC          CHANNEL_SQ_SET_F_FUC
  C:6E3FH         LINE#         1772
  C:6E3FH         LINE#         1773
  C:6E3FH         LINE#         1774
  C:6E4DH         LINE#         1775
  C:6E4DH         LINE#         1776
  C:6E53H         LINE#         1777
  C:6E55H         LINE#         1778
  C:6E5BH         LINE#         1779
  C:6E5DH         LINE#         1780
  C:6E62H         LINE#         1781
  C:6E62H         LINE#         1782
  C:6E62H         LINE#         1783
  C:6E65H         LINE#         1784
  -------         ENDPROC       CHANNEL_SQ_SET_F_FUC
  -------         PROC          CHANNEL_FRECAL_FUC
  C:74CFH         LINE#         1791
  C:74CFH         LINE#         1792
  C:74CFH         LINE#         1793
  C:74D2H         LINE#         1794
  -------         ENDPROC       CHANNEL_FRECAL_FUC
  -------         PROC          CHANNEL_FRECAL_UP_FUC
  -------         DO            
  X:0297H         SYMBOL        oldfrecal
  -------         ENDDO         
  C:6BB0H         LINE#         1800
  C:6BB0H         LINE#         1801
  C:6BB0H         LINE#         1802
  C:6BB8H         LINE#         1803
  C:6BBDH         LINE#         1804
  C:6BBDH         LINE#         1805
  C:6BC3H         LINE#         1806
  C:6BC3H         LINE#         1807
  C:6BCBH         LINE#         1808
  C:6BCBH         LINE#         1809
  C:6BD3H         LINE#         1810
  C:6BD3H         LINE#         1811
  C:6BDAH         LINE#         1812
  -------         ENDPROC       CHANNEL_FRECAL_UP_FUC
  -------         PROC          CHANNEL_FRECAL_DN_FUC
  -------         DO            
  X:0298H         SYMBOL        oldfrecal
  -------         ENDDO         
  C:6BDBH         LINE#         1818
  C:6BDBH         LINE#         1819
  C:6BDBH         LINE#         1820
  C:6BE3H         LINE#         1821
  C:6BE8H         LINE#         1822
  C:6BE8H         LINE#         1823
  C:6BEEH         LINE#         1824
  C:6BEEH         LINE#         1825
  C:6BF6H         LINE#         1826
  C:6BF6H         LINE#         1827
  C:6BFEH         LINE#         1828
  C:6BFEH         LINE#         1829
  C:6C05H         LINE#         1830
BL51 BANKED LINKER/LOCATER V6.22                                                      06/02/2018  10:26:57  PAGE 138


  -------         ENDPROC       CHANNEL_FRECAL_DN_FUC
  -------         PROC          FACTORY_SETTING_FUC
  C:6541H         LINE#         1837
  C:6541H         LINE#         1838
  C:6541H         LINE#         1840
  C:6546H         LINE#         1841
  C:654AH         LINE#         1842
  C:654EH         LINE#         1843
  C:6552H         LINE#         1844
  C:6556H         LINE#         1845
  C:655BH         LINE#         1846
  C:6560H         LINE#         1848
  C:6564H         LINE#         1849
  C:6567H         LINE#         1850
  C:656AH         LINE#         1851
  C:656DH         LINE#         1852
  C:6570H         LINE#         1853
  C:6573H         LINE#         1854
  C:657BH         LINE#         1855
  C:657BH         LINE#         1857
  C:657DH         LINE#         1858
  C:657FH         LINE#         1859
  C:6581H         LINE#         1860
  C:6583H         LINE#         1862
  C:6583H         LINE#         1863
  -------         ENDPROC       FACTORY_SETTING_FUC
  -------         ENDMOD        MENUEVENT

  -------         MODULE        ?C?FPADD
  C:1447H         PUBLIC        ?C?FPADD
  C:1443H         PUBLIC        ?C?FPSUB
  -------         ENDMOD        ?C?FPADD

  -------         MODULE        ?C?FPMUL
  C:1538H         PUBLIC        ?C?FPMUL
  -------         ENDMOD        ?C?FPMUL

  -------         MODULE        ?C?FPDIV
  C:1641H         PUBLIC        ?C?FPDIV
  -------         ENDMOD        ?C?FPDIV

  -------         MODULE        ?C?FPCMP
  C:16E0H         PUBLIC        ?C?FPCMP
  C:16DEH         PUBLIC        ?C?FPCMP3
  -------         ENDMOD        ?C?FPCMP

  -------         MODULE        ?C?FCAST
  C:1761H         PUBLIC        ?C?FCASTC
  C:175CH         PUBLIC        ?C?FCASTI
  C:1757H         PUBLIC        ?C?FCASTL
  -------         ENDMOD        ?C?FCAST

  -------         MODULE        ?C?CASTF
  C:1795H         PUBLIC        ?C?CASTF
  -------         ENDMOD        ?C?CASTF

  -------         MODULE        ?C?SCDIV
BL51 BANKED LINKER/LOCATER V6.22                                                      06/02/2018  10:26:57  PAGE 139


  C:1816H         PUBLIC        ?C?SCDIV
  -------         ENDMOD        ?C?SCDIV

  -------         MODULE        ?C?CLDPTR
  C:1838H         PUBLIC        ?C?CLDPTR
  -------         ENDMOD        ?C?CLDPTR

  -------         MODULE        ?C?CSTOPTR
  C:1851H         PUBLIC        ?C?CSTOPTR
  -------         ENDMOD        ?C?CSTOPTR

  -------         MODULE        ?C?UIDIV
  C:1873H         PUBLIC        ?C?UIDIV
  -------         ENDMOD        ?C?UIDIV

  -------         MODULE        ?C?ILDIX
  C:18C8H         PUBLIC        ?C?ILDIX
  -------         ENDMOD        ?C?ILDIX

  -------         MODULE        ?C?ULDIV
  C:191AH         PUBLIC        ?C?ULDIV
  -------         ENDMOD        ?C?ULDIV

  -------         MODULE        ?C?LNEG
  C:19ACH         PUBLIC        ?C?LNEG
  -------         ENDMOD        ?C?LNEG

  -------         MODULE        ?C?ULCMP
  C:19BAH         PUBLIC        ?C?ULCMP
  -------         ENDMOD        ?C?ULCMP

  -------         MODULE        ?C?ULSHR
  C:19CBH         PUBLIC        ?C?ULSHR
  -------         ENDMOD        ?C?ULSHR

  -------         MODULE        ?C?LSHL
  C:19DEH         PUBLIC        ?C?LSHL
  -------         ENDMOD        ?C?LSHL

  -------         MODULE        ?C?LSTXDATA
  C:19F1H         PUBLIC        ?C?LSTXDATA
  -------         ENDMOD        ?C?LSTXDATA

  -------         MODULE        ?C?LSTKXDATA
  C:19FDH         PUBLIC        ?C?LSTKXDATA
  -------         ENDMOD        ?C?LSTKXDATA

  -------         MODULE        ?C?CCASE
  C:1A2EH         PUBLIC        ?C?CCASE
  -------         ENDMOD        ?C?CCASE

Program Size: data=9.0 xdata=665 code=29908
LINK/LOCATE RUN COMPLETE.  0 WARNING(S),  0 ERROR(S)
